(lp0
(dp1
S'school'
p2
S'Carnegie Mellon'
p3
sS'name'
p4
S'Victor Adamchik'
p5
sS'title'
p6
S'Associate Teaching Professor'
p7
sS'image'
p8
S'http://people.cs.cmu.edu/Thumb/1469'
p9
sS'source'
p10
S'http://people.cs.cmu.edu/Person/1469"'
p11
sS'keywords'
p12
(lp13
S'computational mathematics'
p14
aS'computer algebra and experimental mathematics'
p15
asS'department'
p16
S'Computer Science'
p17
sa(dp18
g2
g3
sg4
S'Jonathan Aldrich'
p19
sg6
S'Associate Professor'
p20
sg8
S'http://people.cs.cmu.edu/Thumb/486'
p21
sS'research_summary'
p22
S'Applying language and program analysis techniques to software engineering problems'
p23
sg10
S'http://people.cs.cmu.edu/Person/486"'
p24
sg16
g17
sa(dp25
g2
g3
sg4
S'Vincent Aleven'
p26
sg6
S'Associate Professor'
p27
sg8
S'http://people.cs.cmu.edu/Thumb/266'
p28
sg10
S'http://people.cs.cmu.edu/Person/266"'
p29
sg12
(lp30
S'enabling technologies'
p31
aS'learning sciences and technologies'
p32
asg16
g17
sa(dp33
g2
g3
sg4
S'Omead Amidi'
p34
sg6
S'Senior Systems Scientist'
p35
sg8
S'http://people.cs.cmu.edu/Thumb/72'
p36
sg10
S'http://people.cs.cmu.edu/Person/72"'
p37
sg12
(lp38
S'biological vision'
p39
asg16
g17
sa(dp40
g2
g3
sg4
S'David Andersen'
p41
sg6
S'Associate Professor'
p42
sg8
S'http://people.cs.cmu.edu/Thumb/543'
p43
sg10
S'http://people.cs.cmu.edu/Person/543"'
p44
sg12
(lp45
S'computer systems in the networked environment'
p46
asg16
g17
sa(dp47
g2
g3
sg4
S'John Anderson'
p48
sg6
S'R. K. Mellon Univ Prof of Psych-Comp Sci'
p49
sg8
S'http://people.cs.cmu.edu/Thumb/128'
p50
sg10
S'http://people.cs.cmu.edu/Person/128"'
p51
sg12
(lp52
S'learning sciences and technologies'
p53
asg16
g17
sa(dp54
g2
g3
sg4
S'Paul Andre'
p55
sg6
S'Post Doctoral Fellow'
p56
sg8
S'http://people.cs.cmu.edu/Thumb/2629'
p57
sg10
S'http://people.cs.cmu.edu/Person/2629"'
p58
sg12
(lp59
S'social computing'
p60
asg16
g17
sa(dp61
g2
g3
sg4
S'Dimitrios Apostolopoulos'
p62
sg6
S'Senior Systems Scientist'
p63
sg8
S'http://people.cs.cmu.edu/Thumb/138'
p64
sg10
S'http://people.cs.cmu.edu/Person/138"'
p65
sg12
(lp66
S'wheeled locomotion'
p67
aS'modeling &amp'
p68
aS'simulation'
p69
aS'teleoperation'
p70
aS'systems engineering'
p71
aS'space robotics'
p72
aS'mobile robots'
p73
aS'mechatronics'
p74
aS'mechanisms'
p75
aS'legged locomotion'
p76
aS'field robotics'
p77
aS'design'
p78
aS'control'
p79
asg16
g17
sa(dp80
g2
g3
sg4
S'Christopher Atkeson'
p81
sg6
S'Professor'
p82
sg8
S'http://people.cs.cmu.edu/Thumb/371'
p83
sg10
S'http://people.cs.cmu.edu/Person/371"'
p84
sg12
(lp85
S'wheeled locomotion'
p86
aS'modeling &amp'
p87
aS'simulation'
p88
aS'teleoperation'
p89
aS'systems engineering'
p90
aS'space robotics'
p91
aS'mobile robots'
p92
aS'mechatronics'
p93
aS'mechanisms'
p94
aS'legged locomotion'
p95
aS'field robotics'
p96
aS'design'
p97
aS'control'
p98
asg16
g17
sa(dp99
g2
g3
sg4
S'James Bagnell'
p100
sg6
S'Associate Professor'
p101
sg8
S'http://people.cs.cmu.edu/Thumb/331'
p102
sg10
S'http://people.cs.cmu.edu/Person/331"'
p103
sg12
(lp104
S'planning'
p105
aS'mobile robots'
p106
aS'machine learning'
p107
aS'control'
p108
aS'artificial intelligence'
p109
asg16
g17
sa(dp110
g2
g3
sg4
S'John Bares'
p111
sg6
S'Research Professor'
p112
sg8
S'http://people.cs.cmu.edu/Thumb/1454'
p113
sg10
S'http://people.cs.cmu.edu/Person/1454"'
p114
sg12
(lp115
S'range finders'
p116
aS'mobile robots'
p117
aS'mechanisms'
p118
aS'legged locomotion'
p119
aS'hazardous environments'
p120
aS'field robotics'
p121
aS'construction'
p122
aS'actuators'
p123
aS'active perception'
p124
aS'3-d perception'
p125
asg16
g17
sa(dp126
g2
g3
sg4
S'Ziv Bar-Joseph'
p127
sg6
S'Associate Professor'
p128
sg8
S'http://people.cs.cmu.edu/Thumb/482'
p129
sg10
S'http://people.cs.cmu.edu/Person/482"'
p130
sg12
(lp131
S'computational biology'
p132
aS'systems biology'
p133
aS'time series analysis'
p134
aS'applied machine learning'
p135
asg16
g17
sa(dp136
g2
g3
sg4
S'Darrin Bentivegna'
p137
sg6
S'Adjunct Faculty Member'
p138
sg8
S'http://people.cs.cmu.edu/Thumb/578'
p139
sg22
S''
p140
sg10
S'http://people.cs.cmu.edu/Person/578"'
p141
sg16
g17
sa(dp142
g2
g3
sg4
S'Marcel Bergerman'
p143
sg6
S'Systems Scientist'
p144
sg8
S'http://people.cs.cmu.edu/Thumb/247'
p145
sg10
S'http://people.cs.cmu.edu/Person/247"'
p146
sg12
(lp147
S'systems engineering'
p148
aS'planning'
p149
aS'motion planning'
p150
aS'mobile robots'
p151
aS'manipulation'
p152
aS'human-robot interaction'
p153
aS'field robotics'
p154
aS'education'
p155
aS'control'
p156
aS'autonomous navigation'
p157
aS'active perception'
p158
asg16
g17
sa(dp159
g2
g3
sg4
S'Alan Black'
p160
sg6
S'Associate Professor'
p161
sg8
S'http://people.cs.cmu.edu/Thumb/306'
p162
sg10
S'http://people.cs.cmu.edu/Person/306"'
p163
sg12
(lp164
S'speech synthesis'
p165
aS'speech to speech translation'
p166
aS'spoken dialog systems'
p167
asg16
g17
sa(dp168
g2
g3
sg4
S'Guy Blelloch'
p169
sg6
S'Professor'
p170
sg8
S'http://people.cs.cmu.edu/Thumb/27'
p171
sg10
S'http://people.cs.cmu.edu/Person/27"'
p172
sg12
(lp173
S'thread scheduling'
p174
aS'parallel algorithms'
p175
aS'nesl language'
p176
aS'provably efficient language implementations'
p177
aS'pipelining with futures'
p178
aS'multiprocessor garbage collection'
p179
aS'multibank memory systems'
p180
asg16
g17
sa(dp181
g2
g3
sg4
S'Lenore Blum'
p182
sg6
S'Distinguished Career Professor of CS'
p183
sg8
S'http://people.cs.cmu.edu/Thumb/327'
p184
sg10
S'http://people.cs.cmu.edu/Person/327"'
p185
sg12
(lp186
S'complexity and real computation'
p187
aS'transfer theorems for complexity theory'
p188
aS'aladdin center'
p189
aS'project olympus and women@scs'
p190
asg16
g17
sa(dp191
g2
g3
sg4
S'Avrim Blum'
p192
sg6
S'Professor'
p193
sg8
S'http://people.cs.cmu.edu/Thumb/160'
p194
sg10
S'http://people.cs.cmu.edu/Person/160"'
p195
sg12
(lp196
S'machine learning theory'
p197
aS'approximation algorithms'
p198
aS'on-line algorithms'
p199
aS'analysis of heuristics'
p200
asg16
g17
sa(dp201
g2
g3
sg4
S'Manuel Blum'
p202
sg6
S'University Professor'
p203
sg8
S'http://people.cs.cmu.edu/Thumb/336'
p204
sg10
S'http://people.cs.cmu.edu/Person/336"'
p205
sg12
(lp206
S'algorithms'
p207
aS'complexity theory'
p208
aS'cryptography'
p209
aS'human interactive proofs'
p210
asg16
g17
sa(dp211
g2
g3
sg4
S'David Bourne'
p212
sg6
S'Principal Systems Scientist'
p213
sg8
S'http://people.cs.cmu.edu/Thumb/12'
p214
sg10
S'http://people.cs.cmu.edu/Person/12"'
p215
sg12
(lp216
S'manufacturing'
p217
asg16
g17
sa(dp218
g2
g3
sg4
S'Daniel Boyarski'
p219
sg6
S'Professor'
p220
sg8
S'http://people.cs.cmu.edu/Thumb/113'
p221
sg22
S'How words, images, motion, and sound work together to produce effective communication pieces '
p222
sg10
S'http://people.cs.cmu.edu/Person/113"'
p223
sg16
g17
sa(dp224
g2
g3
sg4
S'Stephen Brookes'
p225
sg6
S'Professor'
p226
sg8
S'http://people.cs.cmu.edu/Thumb/74'
p227
sg10
S'http://people.cs.cmu.edu/Person/74"'
p228
sg12
(lp229
S'mathematical theory of computation'
p230
aS'theory of programming languages'
p231
aS'the mathematical semantics of programming languages'
p232
asg16
g17
sa(dp233
g2
g3
sg4
S'Ralf Brown'
p234
sg6
S'Senior Systems Scientist'
p235
sg8
S'http://people.cs.cmu.edu/Thumb/122'
p236
sg22
g140
sg10
S'http://people.cs.cmu.edu/Person/122"'
p237
sg16
g17
sa(dp238
g2
g3
sg4
S'Brett Browning'
p239
sg6
S'Senior Systems Scientist'
p240
sg8
S'http://people.cs.cmu.edu/Thumb/381'
p241
sg22
g140
sg10
S'http://people.cs.cmu.edu/Person/381"'
p242
sg16
g17
sa(dp243
g2
g3
sg4
S'Emma Brunskill'
p244
sg6
S'Assistant Professor'
p245
sg8
S'http://people.cs.cmu.edu/Thumb/2532'
p246
sg22
g140
sg10
S'http://people.cs.cmu.edu/Person/2532"'
p247
sg16
g17
sa(dp248
g2
g3
sg4
S'Randal Bryant'
p249
sg6
S'Dean of SCS / University Professor of CS'
p250
sg8
S'http://people.cs.cmu.edu/Thumb/111'
p251
sg22
S'Formal verification of hardware and embedded systems; data structures and algorithms for representing and reasoning about different classes of logic '
p252
sg10
S'http://people.cs.cmu.edu/Person/111"'
p253
sg16
g17
sa(dp254
g2
g3
sg4
S'James Callan'
p255
sg6
S'Professor'
p256
sg8
S'http://people.cs.cmu.edu/Thumb/322'
p257
sg10
S'http://people.cs.cmu.edu/Person/322"'
p258
sg12
(lp259
S'information retrieval models'
p260
aS'search engine architectures'
p261
aS'adaptive information filtering'
p262
aS'text analysis and organization'
p263
aS'text mining'
p264
asg16
g17
sa(dp265
g2
g3
sg4
S'Jaime Carbonell'
p266
sg6
S'Director-LTI / Professor CS and LT'
p267
sg8
S'http://people.cs.cmu.edu/Thumb/4'
p268
sg10
S'http://people.cs.cmu.edu/Person/4"'
p269
sg12
(lp270
S'artificial intelligence'
p271
aS'natural-language processing'
p272
aS'machine learning'
p273
aS'machine translation'
p274
asg16
g17
sa(dp275
g2
g3
sg4
S'Kathleen Carley'
p276
sg6
S'Professor'
p277
sg8
S'http://people.cs.cmu.edu/Thumb/120'
p278
sg22
S'Network science, dynamic network analysis, link analysis, multi-agent simulation, text-analysis in support of interdisciplinary research linking computation to complex socio-cultural phenomenon'
p279
sg10
S'http://people.cs.cmu.edu/Person/120"'
p280
sg16
g17
sa(dp281
g2
g3
sg4
S'Jacobo Carrasquel'
p282
sg6
S'Assoc. Teach. Prof.  / Ugrad Adv. for CS'
p283
sg8
S'http://people.cs.cmu.edu/Thumb/44'
p284
sg10
S'http://people.cs.cmu.edu/Person/44"'
p285
sg12
(lp286
S'introductory programming group'
p287
aS'scs representative in educational facilities committee'
p288
asg16
g17
sa(dp289
g2
g3
sg4
S'Lynn Carter'
p290
sg6
S'Associate Teaching Professor, ISR'
p291
sg8
S'http://people.cs.cmu.edu/Thumb/1903'
p292
sg10
S'http://people.cs.cmu.edu/Person/1903"'
p293
sg12
(lp294
S'to establish a new level of performance'
p295
aS'responsiveness'
p296
aS'predictability and quality in large'
p297
aS'embedded'
p298
aS' complex system architecture'
p299
aS'design'
p300
aS'development'
p301
aS'deployment'
p302
aS' operations activities'
p303
asg16
g17
sa(dp304
g2
g3
sg4
S'Justine Cassell'
p305
sg6
S'Director and Professor'
p306
sg8
S'http://people.cs.cmu.edu/Thumb/1221'
p307
sg10
S'http://people.cs.cmu.edu/Person/1221"'
p308
sg12
(lp309
S'enabling technologies'
p310
aS'learning sciences and technologies'
p311
aS'social computing'
p312
asg16
g17
sa(dp313
g2
g3
sg4
S'Iliano Cervesato'
p314
sg6
S'Associate Teaching Professor, CSD (Qatar)'
p315
sg8
S'http://people.cs.cmu.edu/Thumb/1901'
p316
sg10
S'http://people.cs.cmu.edu/Person/1901"'
p317
sg12
(lp318
S'computational logic'
p319
aS'linear logic'
p320
aS'logical frameworks'
p321
aS'theory of programming languages'
p322
aS'security protocol verification'
p323
asg16
g17
sa(dp324
g2
g3
sg4
S'Howard Choset'
p325
sg6
S'Professor'
p326
sg8
S'http://people.cs.cmu.edu/Thumb/236'
p327
sg10
S'http://people.cs.cmu.edu/Person/236"'
p328
sg12
(lp329
S'space robotics'
p330
aS'snake robots'
p331
aS'multirobot systems'
p332
aS'motion planning'
p333
aS'mobile robots'
p334
aS'mechatronics'
p335
aS'mechanisms'
p336
aS'inspection'
p337
aS'field robotics'
p338
aS'factory and warehouse automation'
p339
aS'education'
p340
aS'control'
p341
aS'artificial intelligence'
p342
asg16
g17
sa(dp343
g2
g3
sg4
S'Edmund Clarke'
p344
sg6
S'Fore Systems University Professor'
p345
sg8
S'http://people.cs.cmu.edu/Thumb/98'
p346
sg22
S'Hardware and Software Verification using Model Checking '
p347
sg10
S'http://people.cs.cmu.edu/Person/98"'
p348
sg16
g17
sa(dp349
g2
g3
sg4
S'William Cohen'
p350
sg6
S'Research Professor'
p351
sg8
S'http://people.cs.cmu.edu/Thumb/389'
p352
sg22
g140
sg10
S'http://people.cs.cmu.edu/Person/389"'
p353
sg16
g17
sa(dp354
g2
g3
sg4
S'Eric Cooper'
p355
sg6
S'Distinguished Service Prof.  of Comp. Sci. '
p356
sg8
S'http://people.cs.cmu.edu/Thumb/95'
p357
sg10
S'http://people.cs.cmu.edu/Person/95"'
p358
sg12
(lp359
S'programming languages'
p360
aS'operating systems'
p361
aS'networks'
p362
aS'open-source software'
p363
aS'commercialization of information technology'
p364
asg16
g17
sa(dp365
g2
g3
sg4
S'Albert Corbett'
p366
sg6
S'Associate Research Professor'
p367
sg8
S'http://people.cs.cmu.edu/Thumb/29'
p368
sg10
S'http://people.cs.cmu.edu/Person/29"'
p369
sg12
(lp370
S'learning sciences and technologies'
p371
asg16
g17
sa(dp372
g2
g3
sg4
S'Thomas Cortina'
p373
sg6
S'Associate Teaching Professor'
p374
sg8
S'http://people.cs.cmu.edu/Thumb/531'
p375
sg10
S'http://people.cs.cmu.edu/Person/531"'
p376
sg12
(lp377
S'computer science education'
p378
asg16
g17
sa(dp379
g2
g3
sg4
S'Lorrie Cranor'
p380
sg6
S'Associate Professor'
p381
sg8
S'http://people.cs.cmu.edu/Thumb/507'
p382
sg10
S'http://people.cs.cmu.edu/Person/507"'
p383
sg12
(lp384
S'privacy'
p385
aS'usable privacy and security software'
p386
aS'computers andsociety'
p387
aS'technology policy'
p388
aS'voting'
p389
asg16
g17
sa(dp390
g2
g3
sg4
S'Karl Crary'
p391
sg6
S'Associate Professor'
p392
sg8
S'http://people.cs.cmu.edu/Thumb/296'
p393
sg10
S'http://people.cs.cmu.edu/Person/296"'
p394
sg12
(lp395
S'programming languages'
p396
aS'type theory'
p397
aS'logic'
p398
aS'certified code'
p399
aS' machine-readable proofs'
p400
asg16
g17
sa(dp401
g2
g3
sg4
S'Wanda Dann'
p402
sg6
S'Senior Systems Scientist'
p403
sg8
S'http://people.cs.cmu.edu/Thumb/788'
p404
sg22
S'Visualization in Programming Languages; Applying visualization in teaching and learning computer science'
p405
sg10
S'http://people.cs.cmu.edu/Person/788"'
p406
sg16
g17
sa(dp407
g2
g3
sg4
S'Roger Dannenberg'
p408
sg6
S'Associate Research Professor'
p409
sg8
S'http://people.cs.cmu.edu/Thumb/119'
p410
sg10
S'http://people.cs.cmu.edu/Person/119"'
p411
sg12
(lp412
S'computer music'
p413
asg16
g17
sa(dp414
g2
g3
sg4
S'Fernando De La Torre Frade'
p415
sg6
S'Associate Research Professor'
p416
sg8
S'http://people.cs.cmu.edu/Thumb/439'
p417
sg10
S'http://people.cs.cmu.edu/Person/439"'
p418
sg12
(lp419
S'statistics'
p420
aS'sensor fusion'
p421
aS'quality-of-life technology'
p422
aS'pattern recognition'
p423
aS'neural networks'
p424
aS'machine understanding of video and human behavior'
p425
aS'machine learning'
p426
aS'information fusion'
p427
aS'image processing'
p428
aS'image compression'
p429
aS'gesture recognition'
p430
aS'data visualization'
p431
aS'data mining'
p432
aS'computer vision'
p433
aS'artificial intelligence'
p434
asg16
g17
sa(dp435
g2
g3
sg4
S'Anind Dey'
p436
sg6
S'Associate Professor'
p437
sg8
S'http://people.cs.cmu.edu/Thumb/579'
p438
sg10
S'http://people.cs.cmu.edu/Person/579"'
p439
sg12
(lp440
S'design research'
p441
aS'enabling technologies'
p442
asg16
g17
sa(dp443
g2
g3
sg4
S'M Dias'
p444
sg6
S'Associate Research Professor'
p445
sg8
S'http://people.cs.cmu.edu/Thumb/299'
p446
sg10
S'http://people.cs.cmu.edu/Person/299"'
p447
sg12
(lp448
S'technology for developing communities'
p449
aS'space robotics'
p450
aS'planning'
p451
aS'multi-agent systems'
p452
aS'motion planning'
p453
aS'mobile robots'
p454
aS'human-computer interaction'
p455
aS'hazardous environments'
p456
aS'field robotics'
p457
aS'education'
p458
aS'artificial intelligence'
p459
asg16
g17
sa(dp460
g2
g3
sg4
S'John Dolan'
p461
sg6
S'Principal Systems Scientist'
p462
sg8
S'http://people.cs.cmu.edu/Thumb/83'
p463
sg10
S'http://people.cs.cmu.edu/Person/83"'
p464
sg12
(lp465
S'teleoperation'
p466
aS'space robotics'
p467
aS'mobile robots'
p468
aS'mechatronics'
p469
aS'human-computer interaction'
p470
aS'factory and warehouse automation'
p471
aS'control'
p472
asg16
g17
sa(dp473
g2
g3
sg4
S'Steven Dow'
p474
sg6
S'Assistant Professor'
p475
sg8
S'http://people.cs.cmu.edu/Thumb/2591'
p476
sg10
S'http://people.cs.cmu.edu/Person/2591"'
p477
sg12
(lp478
S'design research'
p479
asg16
g17
sa(dp480
g2
g3
sg4
S'Artur Dubrawski'
p481
sg6
S'Sr Systems Scientist / Adj Professor Mism'
p482
sg8
S'http://people.cs.cmu.edu/Thumb/221'
p483
sg10
S'http://people.cs.cmu.edu/Person/221"'
p484
sg12
(lp485
S'data mining'
p486
aS'machine learning'
p487
aS'data visualization'
p488
aS'artificial intelligence'
p489
aS'statistics'
p490
aS'pattern recognition'
p491
asg16
g17
sa(dp492
g2
g3
sg4
S'M Durand'
p493
sg6
S'Associate Professor'
p494
sg8
S'http://people.cs.cmu.edu/Thumb/368'
p495
sg22
S'Computational molecular biology and computational genomics  '
p496
sg10
S'http://people.cs.cmu.edu/Person/368"'
p497
sg16
g17
sa(dp498
g2
g3
sg4
S'David Eckhardt'
p499
sg6
S'Associate Teaching Professor'
p500
sg8
S'http://people.cs.cmu.edu/Thumb/140'
p501
sg10
S'http://people.cs.cmu.edu/Person/140"'
p502
sg12
(lp503
S'operating systems'
p504
aS'computer networks'
p505
aS'wireless networks'
p506
asg16
g17
sa(dp507
g2
g3
sg4
S'William Eddy'
p508
sg6
S'Professor'
p509
sg8
S'http://people.cs.cmu.edu/Thumb/2'
p510
sg22
S'The statistical problems associated with Functional Magnetic Resonance Imaging (fMRI) '
p511
sg10
S'http://people.cs.cmu.edu/Person/2"'
p512
sg16
g17
sa(dp513
g2
g3
sg4
S'Alexei Efros'
p514
sg6
S'Associate Professor'
p515
sg8
S'http://people.cs.cmu.edu/Thumb/528'
p516
sg10
S'http://people.cs.cmu.edu/Person/528"'
p517
sg12
(lp518
S'object recognition'
p519
aS'machine learning'
p520
aS'image processing'
p521
aS'computer vision'
p522
aS'computer graphics'
p523
asg16
g17
sa(dp524
g2
g3
sg4
S'Jeffrey Eppinger'
p525
sg6
S'Professor of the Practice'
p526
sg8
S'http://people.cs.cmu.edu/Thumb/347'
p527
sg22
g140
sg10
S'http://people.cs.cmu.edu/Person/347"'
p528
sg16
g17
sa(dp529
g2
g3
sg4
S'Michael Erdmann'
p530
sg6
S'Professor, Computer Science and Robotics'
p531
sg8
S'http://people.cs.cmu.edu/Thumb/136'
p532
sg10
S'http://people.cs.cmu.edu/Person/136"'
p533
sg12
(lp534
S'shape sensing'
p535
aS'protein structure'
p536
aS'protein knot theory'
p537
aS'motion planning'
p538
aS'mobile manipulation'
p539
aS'manipulation mechanics'
p540
asg16
g17
sa(dp541
g2
g3
sg4
S'Maxine Eskenazi'
p542
sg6
S'Principal Systems Scientist'
p543
sg8
S'http://people.cs.cmu.edu/Thumb/199'
p544
sg22
g140
sg10
S'http://people.cs.cmu.edu/Person/199"'
p545
sg16
g17
sa(dp546
g2
g3
sg4
S'Scott Fahlman'
p547
sg6
S'Research Professor'
p548
sg8
S'http://people.cs.cmu.edu/Thumb/1446'
p549
sg10
S'http://people.cs.cmu.edu/Person/1446"'
p550
sg12
(lp551
S'artificial intelligence and its applications'
p552
asg16
g17
sa(dp553
g2
g3
sg4
S'Christos Faloutsos'
p554
sg6
S'Professor'
p555
sg8
S'http://people.cs.cmu.edu/Thumb/268'
p556
sg10
S'http://people.cs.cmu.edu/Person/268"'
p557
sg12
(lp558
S'databases'
p559
aS'data mining'
p560
asg16
g17
sa(dp561
g2
g3
sg4
S'David Farber'
p562
sg6
S'Distinguished Career Prof of CS  Pp'
p563
sg8
S'http://people.cs.cmu.edu/Thumb/446'
p564
sg22
g140
sg10
S'http://people.cs.cmu.edu/Person/446"'
p565
sg16
g17
sa(dp566
g2
g3
sg4
S'Kayvon Fatahalian'
p567
sg6
S'Assistant Professor'
p568
sg8
S'http://people.cs.cmu.edu/Thumb/2234'
p569
sg10
S'http://people.cs.cmu.edu/Person/2234"'
p570
sg12
(lp571
S'computer graphics'
p572
aS'graphics architectures'
p573
aS'parallelarchitecture and programming models'
p574
asg16
g17
sa(dp575
g2
g3
sg4
S'Gary Fedder'
p576
sg6
S'Prof of ECE &amp; Robotics; Director of Ices'
p577
sg8
S'http://people.cs.cmu.edu/Thumb/204'
p578
sg10
S'http://people.cs.cmu.edu/Person/204"'
p579
sg12
(lp580
S'sensors'
p581
aS'microrobotics'
p582
aS'mechatronics'
p583
asg16
g17
sa(dp584
g2
g3
sg4
S'Stephen Fienberg'
p585
sg6
S'Maurice Falk Unv Prof Stats / Soc Sci / MLD'
p586
sg8
S'http://people.cs.cmu.edu/Thumb/7'
p587
sg10
S'http://people.cs.cmu.edu/Person/7"'
p588
sg12
(lp589
S'analysis of categorical data'
p590
aS'bayesian approaches to confidentiality and data disclosure'
p591
aS'causation'
p592
aS'foundations of statistical inference'
p593
aS'history of statistics'
p594
aS'sample surveys and randomized experiments'
p595
aS'statistics and the law'
p596
aS'inference for multiple-media data'
p597
asg16
g17
sa(dp598
g2
g3
sg4
S'Eugene Fink'
p599
sg6
S'Senior Systems Scientist'
p600
sg8
S'http://people.cs.cmu.edu/Thumb/174'
p601
sg10
S'http://people.cs.cmu.edu/Person/174"'
p602
sg12
(lp603
S'artificial intelligence'
p604
aS'machine learning'
p605
aS'computational geometry'
p606
asg16
g17
sa(dp607
g2
g3
sg4
S'Jodi Forlizzi'
p608
sg6
S'Associate Professor'
p609
sg8
S'http://people.cs.cmu.edu/Thumb/232'
p610
sg22
S'Design research focused on the intersection between assistive, aesthetic, and social products, inclusive design and the design of new categories of products and services, such as service robots, interfaces (small, mobile, and ubiquitous) that support the limits of human attention '
p611
sg10
S'http://people.cs.cmu.edu/Person/232"'
p612
sg16
g17
sa(dp613
g2
g3
sg4
S'Robert Frederking'
p614
sg6
S'Senior Systems Scientist'
p615
sg8
S'http://people.cs.cmu.edu/Thumb/134'
p616
sg10
S'http://people.cs.cmu.edu/Person/134"'
p617
sg12
(lp618
S'machine translation'
p619
aS'other multilingual applications'
p620
aS'question-answering systems'
p621
asg16
g17
sa(dp622
g2
g3
sg4
S'Edward Fredkin'
p623
sg6
S'Visiting Research Professional'
p624
sg8
S'http://people.cs.cmu.edu/Thumb/339'
p625
sg22
g140
sg10
S'http://people.cs.cmu.edu/Person/339"'
p626
sg16
g17
sa(dp627
g2
g3
sg4
S'Carol Frieze'
p628
sg6
S'Director,Women@Scs--SCS Website Coord. '
p629
sg8
S'http://people.cs.cmu.edu/Thumb/432'
p630
sg10
S'http://people.cs.cmu.edu/Person/432"'
p631
sg12
(lp632
S'the culture of computing'
p633
aS'broadening participation in computing fields'
p634
aS'diversity issues'
p635
aS'gender myths and stereotypes'
p636
asg16
g17
sa(dp637
g2
g3
sg4
S'Kaigham Gabriel'
p638
sg6
S'Distinguished Service Professor'
p639
sg8
S'http://people.cs.cmu.edu/Thumb/272'
p640
sg10
S'http://people.cs.cmu.edu/Person/272"'
p641
sg12
(lp642
S'tissue engineering'
p643
aS'microrobotics'
p644
aS'human-computer interaction'
p645
aS'haptics'
p646
aS'display devices'
p647
aS'bioengineering'
p648
asg16
g17
sa(dp649
g2
g3
sg4
S'Gregory Ganger'
p650
sg6
S'          Professor'
p651
sg8
S'http://people.cs.cmu.edu/Thumb/281'
p652
sg10
S'http://people.cs.cmu.edu/Person/281"'
p653
sg12
(lp654
S'operating systems'
p655
aS'security'
p656
aS'storage/file systems'
p657
aS'networking'
p658
aS'distributed systems'
p659
asg16
g17
sa(dp660
g2
g3
sg4
S'David Garlan'
p661
sg6
S'Professor'
p662
sg8
S'http://people.cs.cmu.edu/Thumb/153'
p663
sg10
S'http://people.cs.cmu.edu/Person/153"'
p664
sg12
(lp665
S'software engineering'
p666
aS'software architecture'
p667
aS'formal methods'
p668
aS'self-healing systems'
p669
aS'cyber-physical systems'
p670
asg16
g17
sa(dp671
g2
g3
sg4
S'Anatole Gershman'
p672
sg6
S'Distinguished Service Professor'
p673
sg8
S'http://people.cs.cmu.edu/Thumb/768'
p674
sg22
S'Knowledge and language acquisition through active learning, Fusion of information from disparate sources, Making everyday objects smart'
p675
sg10
S'http://people.cs.cmu.edu/Person/768"'
p676
sg16
g17
sa(dp677
g2
g3
sg4
S'Hartmut Geyer'
p678
sg6
S'Assistant Professor'
p679
sg8
S'http://people.cs.cmu.edu/Thumb/1216'
p680
sg22
g140
sg10
S'http://people.cs.cmu.edu/Person/1216"'
p681
sg16
g17
sa(dp682
g2
g3
sg4
S'Garth Gibson'
p683
sg6
S'Professor'
p684
sg8
S'http://people.cs.cmu.edu/Thumb/157'
p685
sg22
S'Parallelism in secondary storage system technologies, especially parallel and distributed file systems, disk arrays, and network-attached storage devices '
p686
sg10
S'http://people.cs.cmu.edu/Person/157"'
p687
sg16
g17
sa(dp688
g2
g3
sg4
S'Seth Goldstein'
p689
sg6
S'Associate Professor'
p690
sg8
S'http://people.cs.cmu.edu/Thumb/253'
p691
sg22
S' Claytronics/Programmable matter/Pario- Compilers and architectures for electronic nanotechnology andreconfigurable computing'
p692
sg10
S'http://people.cs.cmu.edu/Person/253"'
p693
sg16
g17
sa(dp694
g2
g3
sg4
S'Geoffrey Gordon'
p695
sg6
S'Associate Research Professor'
p696
sg8
S'http://people.cs.cmu.edu/Thumb/171'
p697
sg22
S'Reinforcement learning, planning, statistical models of difficult data (examples include natural-language text and maps of a robot&#39;s surroundings), and computational learning theory '
p698
sg10
S'http://people.cs.cmu.edu/Person/171"'
p699
sg16
g17
sa(dp700
g2
g3
sg4
S'Carlos Guestrin'
p701
sg6
S'Associate Professor of CS and Ml'
p702
sg8
S'http://people.cs.cmu.edu/Thumb/254'
p703
sg10
S'http://people.cs.cmu.edu/Person/254"'
p704
sg12
(lp705
S'probabilistic artificial intelligence'
p706
aS'machine learning'
p707
aS'planning under uncertainty'
p708
aS'markov decision processes'
p709
aS'wireless sensor networks'
p710
aS'distributed algorithms'
p711
aS'probabilistic graphical models'
p712
aS'bayesian networks'
p713
aS'markov networks'
p714
aS'multiagent systems'
p715
aS'optimization theory and algorithms'
p716
aS'network and query optimization'
p717
aS'classification'
p718
asg16
g17
sa(dp719
g2
g3
sg4
S'Ananda Gunawardena'
p720
sg6
S'Associate Teaching Professor'
p721
sg8
S'http://people.cs.cmu.edu/Thumb/1462'
p722
sg22
g140
sg10
S'http://people.cs.cmu.edu/Person/1462"'
p723
sg16
g17
sa(dp724
g2
g3
sg4
S'Abhinav Gupta'
p725
sg6
S'Assistant Research Professor'
p726
sg8
S'http://people.cs.cmu.edu/Thumb/1076'
p727
sg10
S'http://people.cs.cmu.edu/Person/1076"'
p728
sg12
(lp729
S'computer graphics'
p730
aS'machine learning'
p731
aS'computer vision'
p732
asg16
g17
sa(dp733
g2
g3
sg4
S'Anupam Gupta'
p734
sg6
S'Associate Professor'
p735
sg8
S'http://people.cs.cmu.edu/Thumb/465'
p736
sg10
S'http://people.cs.cmu.edu/Person/465"'
p737
sg12
(lp738
S'approximation algorithms'
p739
aS'network and graph algorithms'
p740
aS'metric embeddings/methods'
p741
asg16
g17
sa(dp742
g2
g3
sg4
S'Venkatesan Guruswami'
p743
sg6
S'Associate Professor'
p744
sg8
S'http://people.cs.cmu.edu/Thumb/966'
p745
sg10
S'http://people.cs.cmu.edu/Person/966"'
p746
sg12
(lp747
S'theory of error-correcting codes'
p748
aS'approximation algorithms and non-approximability'
p749
aS'pseudorandomness and combinatorial constructions'
p750
aS'computational complexity theory'
p751
aS'algebra and computation'
p752
asg16
g17
sa(dp753
g2
g3
sg4
S'Mor Harchol-Balter'
p754
sg6
S'Assoc. Prof.  / Assoc. Dept. Head Grad. Edu. '
p755
sg8
S'http://people.cs.cmu.edu/Thumb/323'
p756
sg10
S'http://people.cs.cmu.edu/Person/323"'
p757
sg12
(lp758
S'scheduling and resource allocation for computer systems'
p759
aS'queueing theory and stochastic modeling'
p760
aS'plus implementation'
p761
asg16
g17
sa(dp762
g2
g3
sg4
S'Robert Harper'
p763
sg6
S'Professor'
p764
sg8
S'http://people.cs.cmu.edu/Thumb/11'
p765
sg10
S'http://people.cs.cmu.edu/Person/11"'
p766
sg12
(lp767
S'programming languages'
p768
asg16
g17
sa(dp769
g2
g3
sg4
S'Khaled Harras'
p770
sg6
S'Assistant Teaching Professor'
p771
sg8
S'http://people.cs.cmu.edu/Thumb/820'
p772
sg10
S'http://people.cs.cmu.edu/Person/820"'
p773
sg12
(lp774
S'computer networks: mobile ad-hoc'
p775
aS'wireless'
p776
aS'sensor and vehicular networks'
p777
aS'particularly focused on challenged'
p778
aS'delay'
p779
aS' disruption tolerant networks'
p780
asg16
g17
sa(dp781
g2
g3
sg4
S'Alexander Hauptmann'
p782
sg6
S'Project Leader - Informedia'
p783
sg8
S'http://people.cs.cmu.edu/Thumb/88'
p784
sg10
S'http://people.cs.cmu.edu/Person/88"'
p785
sg12
(lp786
S'video and speech understanding'
p787
aS'multimedia search'
p788
aS'language in general'
p789
aS'informedia digital video library project'
p790
asg16
g17
sa(dp791
g2
g3
sg4
S'Martial Hebert'
p792
sg6
S'Professor'
p793
sg8
S'http://people.cs.cmu.edu/Thumb/81'
p794
sg10
S'http://people.cs.cmu.edu/Person/81"'
p795
sg12
(lp796
S'techniques for representing'
p797
aS'constructing'
p798
aS'recognizing general 3-d shapes'
p799
aS'techniques for vision-guided autonomous navigation'
p800
aS'position estimation'
p801
aS'landmark recognition'
p802
asg16
g17
sa(dp803
g2
g3
sg4
S'James Herbsleb'
p804
sg6
S'Professor'
p805
sg8
S'http://people.cs.cmu.edu/Thumb/195'
p806
sg10
S'http://people.cs.cmu.edu/Person/195"'
p807
sg12
(lp808
S'collaboration in software engineering'
p809
aS'especially across distance'
p810
aS'how to support it with collaboration technology'
p811
aS'software engineering and management practices'
p812
aS'appropriate organizational design'
p813
aS'open source software development'
p814
asg16
g17
sa(dp815
g2
g3
sg4
S'Alex Hills'
p816
sg6
S'Distinguished Service Professor, EPP/CS EPP'
p817
sg8
S'http://people.cs.cmu.edu/Thumb/1909'
p818
sg10
S'http://people.cs.cmu.edu/Person/1909"'
p819
sg12
(lp820
S'wireless networks and mobile computing'
p821
asg16
g17
sa(dp822
g2
g3
sg4
S'Jessica Hodgins'
p823
sg6
S'Professor RI / CS Assoc Dir for Faculty RI'
p824
sg8
S'http://people.cs.cmu.edu/Thumb/372'
p825
sg10
S'http://people.cs.cmu.edu/Person/372"'
p826
sg12
(lp827
S'quality-of-life technology'
p828
aS'legged locomotion'
p829
aS'human motion simulation'
p830
aS'entertainment robotics'
p831
aS'computer graphics'
p832
aS'animation'
p833
asg16
g17
sa(dp834
g2
g3
sg4
S'Ralph Hollis'
p835
sg6
S'Research Professor'
p836
sg8
S'http://people.cs.cmu.edu/Thumb/192'
p837
sg10
S'http://people.cs.cmu.edu/Person/192"'
p838
sg12
(lp839
S'agent-based microassembly'
p840
aS'high-fidelity haptic interaction'
p841
aS'novel robot locomotion'
p842
asg16
g17
sa(dp843
g2
g3
sg4
S'Jason Hong'
p844
sg6
S'Associate Professor'
p845
sg8
S'http://people.cs.cmu.edu/Thumb/534'
p846
sg10
S'http://people.cs.cmu.edu/Person/534"'
p847
sg12
(lp848
S'human-computer interaction'
p849
aS'location-based services'
p850
aS'usable privacy and security'
p851
asg16
g17
sa(dp852
g2
g3
sg4
S'Daniel Huber'
p853
sg6
S'Systems Scientist'
p854
sg8
S'http://people.cs.cmu.edu/Thumb/244'
p855
sg10
S'http://people.cs.cmu.edu/Person/244"'
p856
sg12
(lp857
S'range data'
p858
aS'mobile robots'
p859
aS'computer vision'
p860
aS'3-d perception'
p861
aS'teleoperation'
p862
aS'range finders'
p863
asg16
g17
sa(dp864
g2
g3
sg4
S'Scott Hudson'
p865
sg6
S'Professor'
p866
sg8
S'http://people.cs.cmu.edu/Thumb/264'
p867
sg10
S'http://people.cs.cmu.edu/Person/264"'
p868
sg12
(lp869
S'enabling technologies'
p870
aS'human assistance'
p871
asg16
g17
sa(dp872
g2
g3
sg4
S'Branislav Jaramaz'
p873
sg6
S'Associate Research Professor'
p874
sg8
S'http://people.cs.cmu.edu/Thumb/263'
p875
sg10
S'http://people.cs.cmu.edu/Person/263"'
p876
sg12
(lp877
S'medical robotics'
p878
aS'medical imaging'
p879
aS'medical applications'
p880
aS'bioengineering'
p881
asg16
g17
sa(dp882
g2
g3
sg4
S'Bonnie John'
p883
sg6
S'Professor'
p884
sg8
S'http://people.cs.cmu.edu/Thumb/18'
p885
sg22
S'Models of human performance that aid in the design of computer systems '
p886
sg10
S'http://people.cs.cmu.edu/Person/18"'
p887
sg16
g17
sa(dp888
g2
g3
sg4
S'Angel Jordan'
p889
sg6
S'University Professor Emeritus'
p890
sg8
S'http://people.cs.cmu.edu/Thumb/42'
p891
sg22
g140
sg10
S'http://people.cs.cmu.edu/Person/42"'
p892
sg16
g17
sa(dp893
g2
g3
sg4
S'Matthew Kam'
p894
sg6
S'Assistant Professor'
p895
sg8
S'http://people.cs.cmu.edu/Thumb/953'
p896
sg10
S'http://people.cs.cmu.edu/Person/953"'
p897
sg12
(lp898
S'learning sciences and technologies'
p899
asg16
g17
sa(dp900
g2
g3
sg4
S'Takeo Kanade'
p901
sg6
S'U. A.  and Helen Whitaker University Prof. '
p902
sg8
S'http://people.cs.cmu.edu/Thumb/41'
p903
sg10
S'http://people.cs.cmu.edu/Person/41"'
p904
sg12
(lp905
S'stereo vision'
p906
aS'quality-of-life technology'
p907
aS'mobile robots'
p908
aS'medical applications'
p909
aS'human-computer interaction'
p910
aS'computer vision'
p911
aS'computational sensors'
p912
asg16
g17
sa(dp913
g2
g3
sg4
S'George Kantor'
p914
sg6
S'Systems Scientist'
p915
sg8
S'http://people.cs.cmu.edu/Thumb/341'
p916
sg10
S'http://people.cs.cmu.edu/Person/341"'
p917
sg12
(lp918
S'sensor fusion'
p919
aS'range data'
p920
aS'field robotics'
p921
aS'control'
p922
asg16
g17
sa(dp923
g2
g3
sg4
S'Robert Kass'
p924
sg6
S'Professor'
p925
sg8
S'http://people.cs.cmu.edu/Thumb/6'
p926
sg22
g140
sg10
S'http://people.cs.cmu.edu/Person/6"'
p927
sg16
g17
sa(dp928
g2
g3
sg4
S'Thomas Keating'
p929
sg6
S'Assistant Teaching Professor'
p930
sg8
S'http://people.cs.cmu.edu/Thumb/66'
p931
sg10
S'http://people.cs.cmu.edu/Person/66"'
p932
sg12
(lp933
S'technical communication'
p934
asg16
g17
sa(dp935
g2
g3
sg4
S'Alonzo Kelly'
p936
sg6
S'Professor'
p937
sg8
S'http://people.cs.cmu.edu/Thumb/152'
p938
sg22
S'Perception, planning, control, position estimation and human interfaces for mobile robots '
p939
sg10
S'http://people.cs.cmu.edu/Person/152"'
p940
sg16
g17
sa(dp941
g2
g3
sg4
S'Gregory Kesden'
p942
sg6
S'Associate Teaching Professor'
p943
sg8
S'http://people.cs.cmu.edu/Thumb/319'
p944
sg22
g140
sg10
S'http://people.cs.cmu.edu/Person/319"'
p945
sg16
g17
sa(dp946
g2
g3
sg4
S'Pradeep Khosla'
p947
sg6
S'Dean and Philip and Marsha Dowd Prof ECE'
p948
sg8
S'http://people.cs.cmu.edu/Thumb/45'
p949
sg10
S'http://people.cs.cmu.edu/Person/45"'
p950
sg12
(lp951
S'distributed intelligent systems'
p952
aS'embedded systems'
p953
aS'distributed and secure information systems'
p954
asg16
g17
sa(dp955
g2
g3
sg4
S'Sara Kiesler'
p956
sg6
S'Hillman Professor of Hci'
p957
sg8
S'http://people.cs.cmu.edu/Thumb/96'
p958
sg10
S'http://people.cs.cmu.edu/Person/96"'
p959
sg12
(lp960
S'social'
p961
aS'communicative'
p962
aS'cognitive aspects of the use and design of computers'
p963
aS'robots'
p964
aS'communication technologies'
p965
asg16
g17
sa(dp966
g2
g3
sg4
S'Se Young Kim'
p967
sg6
S'Assistant Professor'
p968
sg8
S'http://people.cs.cmu.edu/Thumb/840'
p969
sg22
g140
sg10
S'http://people.cs.cmu.edu/Person/840"'
p970
sg16
g17
sa(dp971
g2
g3
sg4
S'Jin Kyu Kim'
p972
sg6
S'Graduate Assistant'
p973
sg8
S'http://people.cs.cmu.edu/Thumb/2182'
p974
sg22
g140
sg10
S'http://people.cs.cmu.edu/Person/2182"'
p975
sg16
g17
sa(dp976
g2
g3
sg4
S'Aniket Kittur'
p977
sg6
S'Assistant Professor'
p978
sg8
S'http://people.cs.cmu.edu/Thumb/837'
p979
sg10
S'http://people.cs.cmu.edu/Person/837"'
p980
sg12
(lp981
S'social computing'
p982
asg16
g17
sa(dp983
g2
g3
sg4
S'Roberta Klatzky'
p984
sg6
S'Professor'
p985
sg8
S'http://people.cs.cmu.edu/Thumb/183'
p986
sg22
S'Human perception and cognition, with special emphasis on haptic perception and spatial cognition '
p987
sg10
S'http://people.cs.cmu.edu/Person/183"'
p988
sg16
g17
sa(dp989
g2
g3
sg4
S'Kenneth Koedinger'
p990
sg6
S'Professor'
p991
sg8
S'http://people.cs.cmu.edu/Thumb/112'
p992
sg10
S'http://people.cs.cmu.edu/Person/112"'
p993
sg12
(lp994
S'human and machine learning'
p995
aS'educational technology'
p996
asg16
g17
sa(dp997
g2
g3
sg4
S'Ram Konduru'
p998
sg6
S'Director, Universal Digital Library Proj'
p999
sg8
S'http://people.cs.cmu.edu/Thumb/435'
p1000
sg22
g140
sg10
S'http://people.cs.cmu.edu/Person/435"'
p1001
sg16
g17
sa(dp1002
g2
g3
sg4
S'Philip Koopman'
p1003
sg6
S'Associate Professor ECE &amp; ISR'
p1004
sg8
S'http://people.cs.cmu.edu/Thumb/1908'
p1005
sg10
S'http://people.cs.cmu.edu/Person/1908"'
p1006
sg12
(lp1007
S'embedded systems'
p1008
aS'dependable computing'
p1009
aS'distributed safety-critical systems'
p1010
asg16
g17
sa(dp1011
g2
g3
sg4
S'David Kosbie'
p1012
sg6
S'Assistant Teaching Professor'
p1013
sg8
S'http://people.cs.cmu.edu/Thumb/751'
p1014
sg22
g140
sg10
S'http://people.cs.cmu.edu/Person/751"'
p1015
sg16
g17
sa(dp1016
g2
g3
sg4
S'Ioannis Koutis'
p1017
sg6
S'Adjunct Scientist'
p1018
sg8
S'http://people.cs.cmu.edu/Thumb/1467'
p1019
sg22
g140
sg10
S'http://people.cs.cmu.edu/Person/1467"'
p1020
sg16
g17
sa(dp1021
g2
g3
sg4
S'Robert Kraut'
p1022
sg6
S'Herbert A.  Simon Professor of HCII'
p1023
sg8
S'http://people.cs.cmu.edu/Thumb/188'
p1024
sg22
S'The design and social impacts of information technologies in small groups, in the home, and between organizations '
p1025
sg10
S'http://people.cs.cmu.edu/Person/188"'
p1026
sg16
g17
sa(dp1027
g2
g3
sg4
S'John Lafferty'
p1028
sg6
S'Adjunct Professor'
p1029
sg8
S'http://people.cs.cmu.edu/Thumb/1456'
p1030
sg10
S'http://people.cs.cmu.edu/Person/1456"'
p1031
sg12
(lp1032
S'statistical machine learning'
p1033
aS'text and natural language processing'
p1034
aS'information retrieval'
p1035
aS'information theory'
p1036
aS'algorithms on graphs and groups'
p1037
asg16
g17
sa(dp1038
g2
g3
sg4
S'Christopher Langmead'
p1039
sg6
S'Associate Professor'
p1040
sg8
S'http://people.cs.cmu.edu/Thumb/509'
p1041
sg22
S'Computational Structural Biology and Formal Methods in Systems Biology '
p1042
sg10
S'http://people.cs.cmu.edu/Person/509"'
p1043
sg16
g17
sa(dp1044
g2
g3
sg4
S'Anthony Lattanze'
p1045
sg6
S'Teaching  Professor'
p1046
sg8
S'http://people.cs.cmu.edu/Thumb/318'
p1047
sg10
S'http://people.cs.cmu.edu/Person/318"'
p1048
sg12
(lp1049
S'software and system architectural design'
p1050
aS'design methodologies and notations'
p1051
aS'design evaluation'
p1052
asg16
g17
sa(dp1053
g2
g3
sg4
S'Alon Lavie'
p1054
sg6
S'Associate Research Professor'
p1055
sg8
S'http://people.cs.cmu.edu/Thumb/142'
p1056
sg22
S'Machine Translation of text and speech, syntax-based MT, Multi-Engine MT, MT evaluation metrics and MT for native and minority languages; Parsing and analysis of text and conversational spoken language. '
p1057
sg10
S'http://people.cs.cmu.edu/Person/142"'
p1058
sg16
g17
sa(dp1059
g2
g3
sg4
S'Tai-Sing Lee'
p1060
sg6
S'Associate Professor'
p1061
sg8
S'http://people.cs.cmu.edu/Thumb/242'
p1062
sg10
S'http://people.cs.cmu.edu/Person/242"'
p1063
sg12
(lp1064
S'biological and computer vision'
p1065
aS'neural code'
p1066
aS'neural computation and modeling'
p1067
asg16
g17
sa(dp1068
g2
g3
sg4
S'Philip Lehman'
p1069
sg6
S'Associate Dean for Strategic Initiatives'
p1070
sg8
S'http://people.cs.cmu.edu/Thumb/843'
p1071
sg22
g140
sg10
S'http://people.cs.cmu.edu/Person/843"'
p1072
sg16
g17
sa(dp1073
g2
g3
sg4
S'Lorraine Levin'
p1074
sg6
S'Associate Research Professor'
p1075
sg8
S'http://people.cs.cmu.edu/Thumb/34'
p1076
sg10
S'http://people.cs.cmu.edu/Person/34"'
p1077
sg12
(lp1078
S'machine translation of spoken language'
p1079
aS'written language'
p1080
aS' minoritylanguages'
p1081
aS'linguistics'
p1082
aS'computer-assisted language learning'
p1083
asg16
g17
sa(dp1084
g2
g3
sg4
S'Golan Levin'
p1085
sg6
S'Assoc Professor of Art / Director of Sfci'
p1086
sg8
S'http://people.cs.cmu.edu/Thumb/514'
p1087
sg10
S'http://people.cs.cmu.edu/Person/514"'
p1088
sg12
(lp1089
S'animation'
p1090
aS'graphics'
p1091
aS'human-computer interaction'
p1092
aS'information visualization'
p1093
aS'computer music'
p1094
asg16
g17
sa(dp1095
g2
g3
sg4
S'Maxim Likhachev'
p1096
sg6
S'Assistant Research Professor'
p1097
sg8
S'http://people.cs.cmu.edu/Thumb/416'
p1098
sg10
S'http://people.cs.cmu.edu/Person/416"'
p1099
sg12
(lp1100
S'planning'
p1101
aS'obstacle avoidance'
p1102
aS'multi-agent systems'
p1103
aS'mobile robots'
p1104
aS'machine learning'
p1105
aS'field robotics'
p1106
asg16
g17
sa(dp1107
g2
g3
sg4
S'Javier Lopez'
p1108
sg6
S'Associate Professor'
p1109
sg8
S'http://people.cs.cmu.edu/Thumb/2650'
p1110
sg22
g140
sg10
S'http://people.cs.cmu.edu/Person/2650"'
p1111
sg16
g17
sa(dp1112
g2
g3
sg4
S'Simon Lucey'
p1113
sg6
S'Assistant Research Professor'
p1114
sg8
S'http://people.cs.cmu.edu/Thumb/1482'
p1115
sg10
S'http://people.cs.cmu.edu/Person/1482"'
p1116
sg12
(lp1117
S'pattern recognition'
p1118
aS'computer vision'
p1119
aS'artificial intelligence'
p1120
asg16
g17
sa(dp1121
g2
g3
sg4
S'Jennifer Mankoff'
p1122
sg6
S'Associate Professor'
p1123
sg8
S'http://people.cs.cmu.edu/Thumb/320'
p1124
sg10
S'http://people.cs.cmu.edu/Person/320"'
p1125
sg12
(lp1126
S'human computer interaction'
p1127
aS'assistive technology'
p1128
aS'ubiquitous computing'
p1129
aS'sustainability'
p1130
asg16
g17
sa(dp1131
g2
g3
sg4
S'Don Marinelli'
p1132
sg6
S'Professor, Drama, Co-Director, ETC'
p1133
sg8
S'http://people.cs.cmu.edu/Thumb/1907'
p1134
sg22
S'To develop innovative, interdisciplinary curricula in the area of drama and interactive multimedia '
p1135
sg10
S'http://people.cs.cmu.edu/Person/1907"'
p1136
sg16
g17
sa(dp1137
g2
g3
sg4
S'Matthew Mason'
p1138
sg6
S'Director, Robotics Institute'
p1139
sg8
S'http://people.cs.cmu.edu/Thumb/118'
p1140
sg10
S'http://people.cs.cmu.edu/Person/118"'
p1141
sg12
(lp1142
S'planning'
p1143
aS'obstacle avoidance'
p1144
aS'motion planning'
p1145
aS'mobile robots'
p1146
aS'mechatronics'
p1147
aS'manufacturing'
p1148
aS'manipulation'
p1149
aS'factory and warehouse automation'
p1150
aS'control'
p1151
aS'assembly'
p1152
aS'artificial intelligence'
p1153
asg16
g17
sa(dp1154
g2
g3
sg4
S'Iain Matthews'
p1155
sg6
S'Adjunct Faculty Member'
p1156
sg8
S'http://people.cs.cmu.edu/Thumb/314'
p1157
sg10
S'http://people.cs.cmu.edu/Person/314"'
p1158
sg12
(lp1159
S'audio-visual speech recognition and synthesis'
p1160
aS'face modeling'
p1161
aS'tracking and understanding'
p1162
asg16
g17
sa(dp1163
g2
g3
sg4
S'Roy Maxion'
p1164
sg6
S'Research Professor'
p1165
sg8
S'http://people.cs.cmu.edu/Thumb/123'
p1166
sg22
g140
sg10
S'http://people.cs.cmu.edu/Person/123"'
p1167
sg16
g17
sa(dp1168
g2
g3
sg4
S'Bruce McLaren'
p1169
sg6
S'Senior Systems Scientist'
p1170
sg8
S'http://people.cs.cmu.edu/Thumb/454'
p1171
sg10
S'http://people.cs.cmu.edu/Person/454"'
p1172
sg12
(lp1173
S'analogy'
p1174
aS'case-based reasoning'
p1175
aS'internet technologies'
p1176
aS'intelligent tutoring systems'
p1177
asg16
g17
sa(dp1178
g2
g3
sg4
S'Florian Metze'
p1179
sg6
S'Assistant Research Professor'
p1180
sg8
S'http://people.cs.cmu.edu/Thumb/1016'
p1181
sg22
g140
sg10
S'http://people.cs.cmu.edu/Person/1016"'
p1182
sg16
g17
sa(dp1183
g2
g3
sg4
S'Gary Miller'
p1184
sg6
S'Professor'
p1185
sg8
S'http://people.cs.cmu.edu/Thumb/127'
p1186
sg10
S'http://people.cs.cmu.edu/Person/127"'
p1187
sg12
(lp1188
S'parallel computation'
p1189
aS'sparse matrix'
p1190
aS'graph and number-theoretic algorithms'
p1191
asg16
g17
sa(dp1192
g2
g3
sg4
S'Eduardo Miranda'
p1193
sg6
S'Associate Teaching Professor'
p1194
sg8
S'http://people.cs.cmu.edu/Thumb/933'
p1195
sg22
g140
sg10
S'http://people.cs.cmu.edu/Person/933"'
p1196
sg16
g17
sa(dp1197
g2
g3
sg4
S'Teruko Mitamura'
p1198
sg6
S'Research Professor'
p1199
sg8
S'http://people.cs.cmu.edu/Thumb/57'
p1200
sg10
S'http://people.cs.cmu.edu/Person/57"'
p1201
sg12
(lp1202
S'knowledge-based mt'
p1203
aS'question answering'
p1204
aS'japanese nlp and dialog systems'
p1205
asg16
g17
sa(dp1206
g2
g3
sg4
S'Tom Mitchell'
p1207
sg6
S'Director-MLD / Fredkin Prof of CS and Ml'
p1208
sg8
S'http://people.cs.cmu.edu/Thumb/22'
p1209
sg10
S'http://people.cs.cmu.edu/Person/22"'
p1210
sg12
(lp1211
S'machine learning practice and theory'
p1212
aS'cognitive neuroscience'
p1213
aS'fmri brain imaging'
p1214
aS'privacy-preserving data mining'
p1215
asg16
g17
sa(dp1216
g2
g3
sg4
S'Alan Montgomery'
p1217
sg6
S'Associate Professor of Marketing'
p1218
sg8
S'http://people.cs.cmu.edu/Thumb/317'
p1219
sg10
S'http://people.cs.cmu.edu/Person/317"'
p1220
sg12
(lp1221
S'micro-marketing'
p1222
aS'pricing strategies'
p1223
aS'marketing decision support systems'
p1224
aS'time series analysis'
p1225
aS'analysis of clickstream data'
p1226
aS'electronic commerce'
p1227
asg16
g17
sa(dp1228
g2
g3
sg4
S'Andrew Moore'
p1229
sg6
S'Professor'
p1230
sg8
S'http://people.cs.cmu.edu/Thumb/1455'
p1231
sg10
S'http://people.cs.cmu.edu/Person/1455"'
p1232
sg12
(lp1233
S'machine learning'
p1234
aS'artificial intelligence'
p1235
asg16
g17
sa(dp1236
g2
g3
sg4
S'Hans Moravec'
p1237
sg6
S'Adjunct Faculty'
p1238
sg8
S'http://people.cs.cmu.edu/Thumb/129'
p1239
sg22
g140
sg10
S'http://people.cs.cmu.edu/Person/129"'
p1240
sg16
g17
sa(dp1241
g2
g3
sg4
S'James Morris'
p1242
sg6
S'Professor'
p1243
sg8
S'http://people.cs.cmu.edu/Thumb/30'
p1244
sg10
S'http://people.cs.cmu.edu/Person/30"'
p1245
sg12
(lp1246
S'distributed personal computer systems'
p1247
aS'software engineering'
p1248
aS'functional programming'
p1249
aS'user interfaces'
p1250
asg16
g17
sa(dp1251
g2
g3
sg4
S'Jack Mostow'
p1252
sg6
S'Research Professor'
p1253
sg8
S'http://people.cs.cmu.edu/Thumb/168'
p1254
sg10
S'http://people.cs.cmu.edu/Person/168"'
p1255
sg12
(lp1256
S'speech generation and recognition'
p1257
aS'machine learning'
p1258
aS'human-computer interaction'
p1259
aS'educational data mining'
p1260
aS'education'
p1261
aS'data mining'
p1262
aS'artificial intelligence'
p1263
asg16
g17
sa(dp1264
g2
g3
sg4
S'Todd Mowry'
p1265
sg6
S'Professor'
p1266
sg8
S'http://people.cs.cmu.edu/Thumb/265'
p1267
sg10
S'http://people.cs.cmu.edu/Person/265"'
p1268
sg12
(lp1269
S'computer architecture'
p1270
aS'compilers'
p1271
aS'operating systems'
p1272
aS'parallel processing'
p1273
aS'database performance'
p1274
asg16
g17
sa(dp1275
g2
g3
sg4
S'Robert Murphy'
p1276
sg6
S'Lane Professor of Computational Biology'
p1277
sg8
S'http://people.cs.cmu.edu/Thumb/25'
p1278
sg10
S'http://people.cs.cmu.edu/Person/25"'
p1279
sg12
(lp1280
S'computational biology'
p1281
aS'active learning'
p1282
aS'cell imaging'
p1283
aS'modeling of subcellular structure'
p1284
aS'information extraction from image and text'
p1285
aS'applied machine learning'
p1286
asg16
g17
sa(dp1287
g2
g3
sg4
S'Onur Mutlu'
p1288
sg6
S'Assistant Professor'
p1289
sg8
S'http://people.cs.cmu.edu/Thumb/989'
p1290
sg22
S'Computer architecture, hardware/software interaction and cooperation,hardware security, fault tolerance, hardware support for programminglanguages and system software, interconnection networks, many-coresystems.'
p1291
sg10
S'http://people.cs.cmu.edu/Person/989"'
p1292
sg16
g17
sa(dp1293
g2
g3
sg4
S'Brad Myers'
p1294
sg6
S'Professor'
p1295
sg8
S'http://people.cs.cmu.edu/Thumb/117'
p1296
sg10
S'http://people.cs.cmu.edu/Person/117"'
p1297
sg12
(lp1298
S'user interface development systems'
p1299
aS'user interfaces'
p1300
aS'hand-held computers'
p1301
aS'programming by example'
p1302
aS'programming languages for kids'
p1303
aS'visual programming'
p1304
aS'interaction techniques'
p1305
aS'window management'
p1306
aS'programming environments'
p1307
asg16
g17
sa(dp1308
g2
g3
sg4
S'Srinivasa Narasimhan'
p1309
sg6
S'Associate Professor'
p1310
sg8
S'http://people.cs.cmu.edu/Thumb/527'
p1311
sg10
S'http://people.cs.cmu.edu/Person/527"'
p1312
sg12
(lp1313
S'optics'
p1314
aS'image processing'
p1315
aS'computer vision'
p1316
aS'computer graphics'
p1317
aS'computational sensors'
p1318
asg16
g17
sa(dp1319
g2
g3
sg4
S'Priya Narasimhan'
p1320
sg6
S'Associate Professor, ECE'
p1321
sg8
S'http://people.cs.cmu.edu/Thumb/1902'
p1322
sg10
S'http://people.cs.cmu.edu/Person/1902"'
p1323
sg12
(lp1324
S'dependable enterprise middleware systems'
p1325
aS'combining dependability with other &quot'
p1326
aS'-ilities&quot'
p1327
aS'(real-time'
p1328
aS'security)'
p1329
aS'self-adaptive systems'
p1330
asg16
g17
sa(dp1331
g2
g3
sg4
S'Christine Neuwirth'
p1332
sg6
S'Professor and Head'
p1333
sg8
S'http://people.cs.cmu.edu/Thumb/115'
p1334
sg22
S'Computer-support for collaborative writing computer-mediated communication '
p1335
sg10
S'http://people.cs.cmu.edu/Person/115"'
p1336
sg16
g17
sa(dp1337
g2
g3
sg4
S'Illah Nourbakhsh'
p1338
sg6
S'Professor'
p1339
sg8
S'http://people.cs.cmu.edu/Thumb/255'
p1340
sg22
S'Robotics and artificial intelligence, with an emphasis on the design of autonomous, deliberate systems that achieve their goals in the face of incomplete knowledge '
p1341
sg10
S'http://people.cs.cmu.edu/Person/255"'
p1342
sg16
g17
sa(dp1343
g2
g3
sg4
S'Eric Nyberg'
p1344
sg6
S'Professor'
p1345
sg8
S'http://people.cs.cmu.edu/Thumb/5'
p1346
sg10
S'http://people.cs.cmu.edu/Person/5"'
p1347
sg12
(lp1348
S'question answering'
p1349
aS'information extraction'
p1350
aS'natural language processing'
p1351
asg16
g17
sa(dp1352
g2
g3
sg4
S'Ryan O&#39;Donnell'
p1353
sg6
S'Associate Professor'
p1354
sg8
S'http://people.cs.cmu.edu/Thumb/689'
p1355
sg10
S'http://people.cs.cmu.edu/Person/689"'
p1356
sg12
(lp1357
S'complexity theory'
p1358
aS'approximation algorithms'
p1359
aS'analysis of booleanfunctions'
p1360
aS'learning theory'
p1361
aS'property testing'
p1362
aS'probability'
p1363
asg16
g17
sa(dp1364
g2
g3
sg4
S'Kemal Oflazer'
p1365
sg6
S'Teaching Faculty'
p1366
sg8
S'http://people.cs.cmu.edu/Thumb/2123'
p1367
sg22
g140
sg10
S'http://people.cs.cmu.edu/Person/2123"'
p1368
sg16
g17
sa(dp1369
g2
g3
sg4
S'David O&#39;Hallaron'
p1370
sg6
S'Profess0r 0F CS and ECE'
p1371
sg8
S'http://people.cs.cmu.edu/Thumb/141'
p1372
sg10
S'http://people.cs.cmu.edu/Person/141"'
p1373
sg12
(lp1374
S'scientific computing'
p1375
aS'computational database systems'
p1376
aS'internet services'
p1377
asg16
g17
sa(dp1378
g2
g3
sg4
S'Mark Paulk'
p1379
sg6
S'Senior Systems Scientist'
p1380
sg8
S'http://people.cs.cmu.edu/Thumb/116'
p1381
sg10
S'http://people.cs.cmu.edu/Person/116"'
p1382
sg12
(lp1383
S'total quality management'
p1384
aS'best practices (e'
p1385
aS'software cmm'
p1386
aS'iso/iec 15504'
p1387
aS'escm-sp)'
p1388
aS'empirical research'
p1389
aS'high maturity practices'
p1390
aS'statistical thinking'
p1391
aS' agile methods'
p1392
asg16
g17
sa(dp1393
g2
g3
sg4
S'Eric Paulos'
p1394
sg6
S'Associate Professor'
p1395
sg8
S'http://people.cs.cmu.edu/Thumb/929'
p1396
sg22
g140
sg10
S'http://people.cs.cmu.edu/Person/929"'
p1397
sg16
g17
sa(dp1398
g2
g3
sg4
S'Frank Pfenning'
p1399
sg6
S'Prof. CS / SCS Assoc. Dean Grad. Education'
p1400
sg8
S'http://people.cs.cmu.edu/Thumb/32'
p1401
sg10
S'http://people.cs.cmu.edu/Person/32"'
p1402
sg12
(lp1403
S'programming languages'
p1404
aS'logic'
p1405
aS'type theory'
p1406
aS'automated deduction'
p1407
aS'security'
p1408
asg16
g17
sa(dp1409
g2
g3
sg4
S'Andre Platzer'
p1410
sg6
S'Assistant Professor'
p1411
sg8
S'http://people.cs.cmu.edu/Thumb/675'
p1412
sg10
S'http://people.cs.cmu.edu/Person/675"'
p1413
sg12
(lp1414
S'formal verification of hybrid'
p1415
aS'real-time'
p1416
aS'cyber-physical'
p1417
aS' embedded systems'
p1418
aS'logic'
p1419
aS'automated theorem proving and model checking'
p1420
aS'computer algebra'
p1421
asg16
g17
sa(dp1422
g2
g3
sg4
S'Nancy Pollard'
p1423
sg6
S'Associate Professor'
p1424
sg8
S'http://people.cs.cmu.edu/Thumb/409'
p1425
sg10
S'http://people.cs.cmu.edu/Person/409"'
p1426
sg12
(lp1427
S'quality-of-life technology'
p1428
aS'manipulation'
p1429
aS'humanoid robotics'
p1430
aS'human motion simulation'
p1431
aS'computer graphics'
p1432
aS'animation'
p1433
asg16
g17
sa(dp1434
g2
g3
sg4
S'Ariel Procaccia'
p1435
sg6
S'Assistant Professor '
p1436
sg8
S'http://people.cs.cmu.edu/Thumb/2615'
p1437
sg10
S'http://people.cs.cmu.edu/Person/2615"'
p1438
sg12
(lp1439
S'artificial intelligence'
p1440
aS'computational game theory'
p1441
aS'computational social choice'
p1442
aS'algorithms'
p1443
asg16
g17
sa(dp1444
g2
g3
sg4
S'Bhiksha Ramakrishnan'
p1445
sg6
S'Associate Professor'
p1446
sg8
S'http://people.cs.cmu.edu/Thumb/209'
p1447
sg22
g140
sg10
S'http://people.cs.cmu.edu/Person/209"'
p1448
sg16
g17
sa(dp1449
g2
g3
sg4
S'Ramamoorthi Ravi'
p1450
sg6
S'Carnegie Bosch Professor'
p1451
sg8
S'http://people.cs.cmu.edu/Thumb/216'
p1452
sg22
S'Approximation algorithms, combinatorial optimization and computational molecular biology '
p1453
sg10
S'http://people.cs.cmu.edu/Person/216"'
p1454
sg16
g17
sa(dp1455
g2
g3
sg4
S'Raj Reddy'
p1456
sg6
S'Mozah Bint Nasser University Professor'
p1457
sg8
S'http://people.cs.cmu.edu/Thumb/1450'
p1458
sg10
S'http://people.cs.cmu.edu/Person/1450"'
p1459
sg12
(lp1460
S'speech'
p1461
aS'gigabit'
p1462
aS'robotics'
p1463
aS' digital libraries'
p1464
asg16
g17
sa(dp1465
g2
g3
sg4
S'Margaret Reid-Miller'
p1466
sg6
S'Assistant Teaching Professor'
p1467
sg8
S'http://people.cs.cmu.edu/Thumb/166'
p1468
sg22
g140
sg10
S'http://people.cs.cmu.edu/Person/166"'
p1469
sg16
g17
sa(dp1470
g2
g3
sg4
S'John Reynolds'
p1471
sg6
S'Professor'
p1472
sg8
S'http://people.cs.cmu.edu/Thumb/1448'
p1473
sg22
S'The design of programming languages and languages for specifying program behavior, mathematical tools for defining the semantics of such languages, and methods for verifying that programs meet their specifications '
p1474
sg10
S'http://people.cs.cmu.edu/Person/1448"'
p1475
sg16
g17
sa(dp1476
g2
g3
sg4
S'Cameron Riviere'
p1477
sg6
S'Associate Research Professor'
p1478
sg8
S'http://people.cs.cmu.edu/Thumb/218'
p1479
sg10
S'http://people.cs.cmu.edu/Person/218"'
p1480
sg12
(lp1481
S'medical robotics'
p1482
aS'medical applications'
p1483
aS'mechatronics'
p1484
aS'machine learning'
p1485
aS'control'
p1486
asg16
g17
sa(dp1487
g2
g3
sg4
S'Alfred Rizzi'
p1488
sg6
S'Adjunct Faculty'
p1489
sg8
S'http://people.cs.cmu.edu/Thumb/225'
p1490
sg22
S'Developing highly capable systems and machines that are both easy to instruct and capable of dealing with uncertainty '
p1491
sg10
S'http://people.cs.cmu.edu/Person/225"'
p1492
sg16
g17
sa(dp1493
g2
g3
sg4
S'Katherine Roeder'
p1494
sg6
S'Professor'
p1495
sg8
S'http://people.cs.cmu.edu/Thumb/2649'
p1496
sg22
g140
sg10
S'http://people.cs.cmu.edu/Person/2649"'
p1497
sg16
g17
sa(dp1498
g2
g3
sg4
S'Gustavo Rohde'
p1499
sg6
S'Assistant Professor '
p1500
sg8
S'http://people.cs.cmu.edu/Thumb/2651'
p1501
sg10
S'http://people.cs.cmu.edu/Person/2651"'
p1502
sg12
(lp1503
S'biomedical imaging'
p1504
aS'signal processing'
p1505
aS'computational biology'
p1506
asg16
g17
sa(dp1507
g2
g3
sg4
S'David Root'
p1508
sg6
S'Assoc. Teaching Professor / Asst Direct. De'
p1509
sg8
S'http://people.cs.cmu.edu/Thumb/290'
p1510
sg22
g140
sg10
S'http://people.cs.cmu.edu/Person/290"'
p1511
sg16
g17
sa(dp1512
g2
g3
sg4
S'Carolyn Rose'
p1513
sg6
S'Assistant Professor'
p1514
sg8
S'http://people.cs.cmu.edu/Thumb/170'
p1515
sg10
S'http://people.cs.cmu.edu/Person/170"'
p1516
sg12
(lp1517
S'computer supported collaborative learning'
p1518
aS'tutorial dialogue'
p1519
aS'conversation analysis'
p1520
aS'summarization'
p1521
asg16
g17
sa(dp1522
g2
g3
sg4
S'Ronald Rosenfeld'
p1523
sg6
S'Professor'
p1524
sg8
S'http://people.cs.cmu.edu/Thumb/93'
p1525
sg10
S'http://people.cs.cmu.edu/Person/93"'
p1526
sg12
(lp1527
S'computational molecular biology'
p1528
aS'speech and language technology for development'
p1529
aS'speech interfaces'
p1530
aS'machine learning'
p1531
asg16
g17
sa(dp1532
g2
g3
sg4
S'Manuel Rosso-Llopart'
p1533
sg6
S'Associate Teaching Professor'
p1534
sg8
S'http://people.cs.cmu.edu/Thumb/376'
p1535
sg22
g140
sg10
S'http://people.cs.cmu.edu/Person/376"'
p1536
sg16
g17
sa(dp1537
g2
g3
sg4
S'Zack Rubinstein'
p1538
sg6
S'Systems Scientist'
p1539
sg8
S'http://people.cs.cmu.edu/Thumb/606'
p1540
sg22
g140
sg10
S'http://people.cs.cmu.edu/Person/606"'
p1541
sg16
g17
sa(dp1542
g2
g3
sg4
S'Steven Rudich'
p1543
sg6
S'Professor'
p1544
sg8
S'http://people.cs.cmu.edu/Thumb/133'
p1545
sg22
g140
sg10
S'http://people.cs.cmu.edu/Person/133"'
p1546
sg16
g17
sa(dp1547
g2
g3
sg4
S'Alexander Rudnicky'
p1548
sg6
S'Research Professor'
p1549
sg8
S'http://people.cs.cmu.edu/Thumb/55'
p1550
sg10
S'http://people.cs.cmu.edu/Person/55"'
p1551
sg12
(lp1552
S'spoken language interaction'
p1553
aS'speech recognition'
p1554
aS'interface design'
p1555
asg16
g17
sa(dp1556
g2
g3
sg4
S'Paul Rybski'
p1557
sg6
S'Senior Systems Scientist'
p1558
sg8
S'http://people.cs.cmu.edu/Thumb/479'
p1559
sg10
S'http://people.cs.cmu.edu/Person/479"'
p1560
sg12
(lp1561
S'sensor fusion'
p1562
aS'robot soccer'
p1563
aS'multirobot systems'
p1564
aS'mobile robots'
p1565
aS'human-robot interaction'
p1566
aS'field robotics'
p1567
aS'artificial intelligence'
p1568
asg16
g17
sa(dp1569
g2
g3
sg4
S'Norman Sadeh-Koniecpol'
p1570
sg6
S'Professor'
p1571
sg8
S'http://people.cs.cmu.edu/Thumb/130'
p1572
sg22
S'Director, Mobile Commerce Lab;Director, e-Supply Chain Management Lab;Co-Director, COS PhD Program;Co-Director, MBA Track in Technology Leadership; Other research areas: Web Commerce, Security and Privacy, AI and HCI.'
p1573
sg10
S'http://people.cs.cmu.edu/Person/130"'
p1574
sg16
g17
sa(dp1575
g2
g3
sg4
S'Nick Sahinidis'
p1576
sg6
S'John E. Swearingen Professor'
p1577
sg8
S'http://people.cs.cmu.edu/Thumb/2652'
p1578
sg22
S'Fundamental advances in the area of optimization theory, algorithms, and software. Comprehensive solutions to important and fundamental problems involving biological, chemical, and engineering systems.'
p1579
sg10
S'http://people.cs.cmu.edu/Person/2652"'
p1580
sg16
g17
sa(dp1581
g2
g3
sg4
S'Majd Sakr'
p1582
sg6
S'Associate Teaching Professor, Assistant Dean for Research (Qatar)'
p1583
sg8
S'http://people.cs.cmu.edu/Thumb/1900'
p1584
sg10
S'http://people.cs.cmu.edu/Person/1900"'
p1585
sg12
(lp1586
S'computer architecture'
p1587
aS'embedded systems'
p1588
aS'parallel processing'
p1589
aS'cloud computing'
p1590
asg16
g17
sa(dp1591
g2
g3
sg4
S'Tuomas Sandholm'
p1592
sg6
S'Professor'
p1593
sg8
S'http://people.cs.cmu.edu/Thumb/393'
p1594
sg10
S'http://people.cs.cmu.edu/Person/393"'
p1595
sg12
(lp1596
S'artificial intelligence'
p1597
aS'electronic commerce'
p1598
aS'game theory'
p1599
aS'multiagent systems'
p1600
aS'auctions and exchanges'
p1601
aS'automated negotiation and contracting'
p1602
aS'coalition formation'
p1603
aS'safe exchange'
p1604
aS'normative models of bounded rationality'
p1605
aS'resource-bounded reasoning'
p1606
aS'constraint satisfaction'
p1607
aS'machine learning'
p1608
aS'networks'
p1609
aS'combinatorial optimization'
p1610
asg16
g17
sa(dp1611
g2
g3
sg4
S'Mahadev Satyanarayanan'
p1612
sg6
S'Carnegie Group Professor of Comp. Science'
p1613
sg8
S'http://people.cs.cmu.edu/Thumb/61'
p1614
sg10
S'http://people.cs.cmu.edu/Person/61"'
p1615
sg12
(lp1616
S'mobile and pervasive computing'
p1617
aS'distributed file systems'
p1618
aS'measurement and evaluation'
p1619
aS'security'
p1620
asg16
g17
sa(dp1621
g2
g3
sg4
S'Paul Scerri'
p1622
sg6
S'Associate Research Professor'
p1623
sg8
S'http://people.cs.cmu.edu/Thumb/476'
p1624
sg10
S'http://people.cs.cmu.edu/Person/476"'
p1625
sg12
(lp1626
S'multi-agent systems'
p1627
aS'human-computer interaction'
p1628
aS'constraint-directed reasoning'
p1629
aS'artificial intelligence'
p1630
asg16
g17
sa(dp1631
g2
g3
sg4
S'Richard Scheines'
p1632
sg6
S'Professor and Department Head'
p1633
sg8
S'http://people.cs.cmu.edu/Thumb/28'
p1634
sg10
S'http://people.cs.cmu.edu/Person/28"'
p1635
sg12
(lp1636
S'causal discovery from databases'
p1637
aS'web-based education'
p1638
asg16
g17
sa(dp1639
g2
g3
sg4
S'Hagen Schempf'
p1640
sg6
S'Dir. , M. Sc.  Robotic Systems Development'
p1641
sg8
S'http://people.cs.cmu.edu/Thumb/154'
p1642
sg10
S'http://people.cs.cmu.edu/Person/154"'
p1643
sg12
(lp1644
S'manufacturing'
p1645
aS'manipulation'
p1646
aS'hazardous environments'
p1647
asg16
g17
sa(dp1648
g2
g3
sg4
S'William Scherlis'
p1649
sg6
S'Professor and Director'
p1650
sg8
S'http://people.cs.cmu.edu/Thumb/94'
p1651
sg10
S'http://people.cs.cmu.edu/Person/94"'
p1652
sg12
(lp1653
S'software engineering'
p1654
aS'software assurance'
p1655
aS'concurrency'
p1656
aS'program analysis'
p1657
asg16
g17
sa(dp1658
g2
g3
sg4
S'Bradley Schmerl'
p1659
sg6
S'Senior Systems Scientist'
p1660
sg8
S'http://people.cs.cmu.edu/Thumb/369'
p1661
sg10
S'http://people.cs.cmu.edu/Person/369"'
p1662
sg12
(lp1663
S'software engineering'
p1664
aS'software architecture'
p1665
aS'dynamic adaptation'
p1666
aS'pervasive computing'
p1667
asg16
g17
sa(dp1668
g2
g3
sg4
S'Jeff Schneider'
p1669
sg6
S'Associate Research Professor'
p1670
sg8
S'http://people.cs.cmu.edu/Thumb/208'
p1671
sg10
S'http://people.cs.cmu.edu/Person/208"'
p1672
sg12
(lp1673
S'machine learning'
p1674
aS'artificial intelligence'
p1675
asg16
g17
sa(dp1676
g2
g3
sg4
S'Tanja Schultz'
p1677
sg6
S'Faculty'
p1678
sg8
S'http://people.cs.cmu.edu/Thumb/377'
p1679
sg22
S'Rapid Deployment of Speech Processing Systems to new Languages and Domains, Speech Translation, Detection and Annotation of Disfluencies and Non-verbal Cues, Non-audible and Whispered Speech, Towards Communication with Dolphins'
p1680
sg10
S'http://people.cs.cmu.edu/Person/377"'
p1681
sg16
g17
sa(dp1682
g2
g3
sg4
S'Russell Schwartz'
p1683
sg6
S'Associate Professor'
p1684
sg8
S'http://people.cs.cmu.edu/Thumb/436'
p1685
sg22
g140
sg10
S'http://people.cs.cmu.edu/Person/436"'
p1686
sg16
g17
sa(dp1687
g2
g3
sg4
S'Dana Scott'
p1688
sg6
S'Hillman University Professor, CS, Math, Phil., CSD, Emeritus'
p1689
sg8
S'http://people.cs.cmu.edu/Thumb/1906'
p1690
sg10
S'http://people.cs.cmu.edu/Person/1906"'
p1691
sg12
(lp1692
S'philosophy'
p1693
aS'mathematical logic'
p1694
aS'semantics of computer languages'
p1695
aS'computer algebra'
p1696
asg16
g17
sa(dp1697
g2
g3
sg4
S'Teddy Seidenfeld'
p1698
sg6
S'Herbert A Simon Prof Philosophy  Stats'
p1699
sg8
S'http://people.cs.cmu.edu/Thumb/20'
p1700
sg22
g140
sg10
S'http://people.cs.cmu.edu/Person/20"'
p1701
sg16
g17
sa(dp1702
g2
g3
sg4
S'Srinivasan Seshan'
p1703
sg6
S'Professor'
p1704
sg8
S'http://people.cs.cmu.edu/Thumb/373'
p1705
sg10
S'http://people.cs.cmu.edu/Person/373"'
p1706
sg12
(lp1707
S'network protocols/services/applications'
p1708
aS'distributed systems'
p1709
aS'mobile computing'
p1710
aS'wireless networks'
p1711
asg16
g17
sa(dp1712
g2
g3
sg4
S'Michael Shamos'
p1713
sg6
S'Distinguished Career Professor'
p1714
sg8
S'http://people.cs.cmu.edu/Thumb/16'
p1715
sg10
S'http://people.cs.cmu.edu/Person/16"'
p1716
sg12
(lp1717
S'digital libraries'
p1718
aS'language indentification'
p1719
aS'internet policy'
p1720
aS'electronic negotiation'
p1721
asg16
g17
sa(dp1722
g2
g3
sg4
S'Mary Shaw'
p1723
sg6
S'A J Perlis Professor'
p1724
sg8
S'http://people.cs.cmu.edu/Thumb/90'
p1725
sg10
S'http://people.cs.cmu.edu/Person/90"'
p1726
sg12
(lp1727
S'software engineering'
p1728
aS'value-driven software design'
p1729
aS'software architecture'
p1730
aS'paradigms of software research'
p1731
aS'software engineering education'
p1732
asg16
g17
sa(dp1733
g2
g3
sg4
S'Yaser Sheikh'
p1734
sg6
S'Assistant Research Professor'
p1735
sg8
S'http://people.cs.cmu.edu/Thumb/680'
p1736
sg10
S'http://people.cs.cmu.edu/Person/680"'
p1737
sg12
(lp1738
S'visual tracking'
p1739
aS'machine learning'
p1740
aS'human motion simulation'
p1741
aS'computer vision'
p1742
asg16
g17
sa(dp1743
g2
g3
sg4
S'Kenji Shimada'
p1744
sg6
S'Professor, ME and RI '
p1745
sg8
S'http://people.cs.cmu.edu/Thumb/1904'
p1746
sg10
S'http://people.cs.cmu.edu/Person/1904"'
p1747
sg12
(lp1748
S'geometric modeling and simulation'
p1749
aS'mesh generation'
p1750
aS'computer graphics'
p1751
aS'computational geometry'
p1752
aS'robotics'
p1753
aS'medical cad - cad/cam/cae'
p1754
asg16
g17
sa(dp1755
g2
g3
sg4
S'Mel Siegel'
p1756
sg6
S'Associate Research Professor'
p1757
sg8
S'http://people.cs.cmu.edu/Thumb/24'
p1758
sg10
S'http://people.cs.cmu.edu/Person/24"'
p1759
sg12
(lp1760
S'video systems'
p1761
aS'teleoperation'
p1762
aS'sensors'
p1763
aS'medical imaging'
p1764
aS'inspection'
p1765
aS'image compression'
p1766
aS'display devices'
p1767
aS'acoustics'
p1768
aS'3-d perception'
p1769
asg16
g17
sa(dp1770
g2
g3
sg4
S'Daniel Siewiorek'
p1771
sg6
S'Buhl Univ. Prof ECE &amp; CS'
p1772
sg8
S'http://people.cs.cmu.edu/Thumb/105'
p1773
sg10
S'http://people.cs.cmu.edu/Person/105"'
p1774
sg12
(lp1775
S'mobile computing'
p1776
aS'wearable computers'
p1777
aS'context aware computing'
p1778
aS'rapid prototyping'
p1779
aS'computer architecture'
p1780
aS'dependable computing'
p1781
aS'design automation'
p1782
aS'parallel processing'
p1783
asg16
g17
sa(dp1784
g2
g3
sg4
S'Reid Simmons'
p1785
sg6
S'Research Prof / Assoc Dir Educ / Phd Chair'
p1786
sg8
S'http://people.cs.cmu.edu/Thumb/17'
p1787
sg10
S'http://people.cs.cmu.edu/Person/17"'
p1788
sg12
(lp1789
S'space robotics'
p1790
aS'quality-of-life technology'
p1791
aS'planning'
p1792
aS'obstacle avoidance'
p1793
aS'multi-agent systems'
p1794
aS'motion planning'
p1795
aS'mobile robots'
p1796
aS'machine learning'
p1797
aS'artificial intelligence'
p1798
aS'architectures'
p1799
asg16
g17
sa(dp1800
g2
g3
sg4
S'Sanjiv Singh'
p1801
sg6
S'Research Professor'
p1802
sg8
S'http://people.cs.cmu.edu/Thumb/121'
p1803
sg10
S'http://people.cs.cmu.edu/Person/121"'
p1804
sg12
(lp1805
S'applications of robotics in outdoor'
p1806
aS'unstructured environments'
p1807
asg16
g17
sa(dp1808
g2
g3
sg4
S'Aarti Singh'
p1809
sg6
S'Assistant Professor'
p1810
sg8
S'http://people.cs.cmu.edu/Thumb/1086'
p1811
sg22
g140
sg10
S'http://people.cs.cmu.edu/Person/1086"'
p1812
sg16
g17
sa(dp1813
g2
g3
sg4
S'Donald Slater'
p1814
sg6
S'Assistant Teaching Professor'
p1815
sg8
S'http://people.cs.cmu.edu/Thumb/298'
p1816
sg10
S'http://people.cs.cmu.edu/Person/298"'
p1817
sg12
(lp1818
S'teacher of computer science'
p1819
aS'alice project'
p1820
asg16
g17
sa(dp1821
g2
g3
sg4
S'Daniel Sleator'
p1822
sg6
S'Professor'
p1823
sg8
S'http://people.cs.cmu.edu/Thumb/109'
p1824
sg10
S'http://people.cs.cmu.edu/Person/109"'
p1825
sg12
(lp1826
S'data structures'
p1827
aS'graph algorithms'
p1828
aS'on-line algorithms'
p1829
aS'parsing natural languages'
p1830
asg16
g17
sa(dp1831
g2
g3
sg4
S'Stephen Smith'
p1832
sg6
S'Research Professor'
p1833
sg8
S'http://people.cs.cmu.edu/Thumb/97'
p1834
sg10
S'http://people.cs.cmu.edu/Person/97"'
p1835
sg12
(lp1836
S'scheduling'
p1837
aS'planning'
p1838
aS'optimization'
p1839
aS'multi-agent systems'
p1840
aS'manufacturing'
p1841
aS'machine learning'
p1842
aS'intelligent transportation'
p1843
aS'human-computer interaction'
p1844
aS'factory and warehouse automation'
p1845
aS'distributed problem solving'
p1846
aS'constraint-directed reasoning'
p1847
aS'artificial intelligence'
p1848
asg16
g17
sa(dp1849
g2
g3
sg4
S'Noah Smith'
p1850
sg6
S'Assistant Professor'
p1851
sg8
S'http://people.cs.cmu.edu/Thumb/691'
p1852
sg22
S'Multilingual and Cross-lingual Natural Language Processing, Machine Learning'
p1853
sg10
S'http://people.cs.cmu.edu/Person/691"'
p1854
sg16
g17
sa(dp1855
g2
g3
sg4
S'Peter Spirtes'
p1856
sg6
S'Professor, Philosophy'
p1857
sg8
S'http://people.cs.cmu.edu/Thumb/1905'
p1858
sg22
g140
sg10
S'http://people.cs.cmu.edu/Person/1905"'
p1859
sg16
g17
sa(dp1860
g2
g3
sg4
S'Siddhartha Srinivasa'
p1861
sg6
S'Associate Professor'
p1862
sg8
S'http://people.cs.cmu.edu/Thumb/333'
p1863
sg10
S'http://people.cs.cmu.edu/Person/333"'
p1864
sg12
(lp1865
S'motion planning'
p1866
aS'manipulation'
p1867
aS'humanoid robotics'
p1868
aS'human motion simulation'
p1869
aS'control'
p1870
aS'computer graphics'
p1871
aS'active perception'
p1872
asg16
g17
sa(dp1873
g2
g3
sg4
S'Peter Steenkiste'
p1874
sg6
S'Professor of CS and ECE'
p1875
sg8
S'http://people.cs.cmu.edu/Thumb/126'
p1876
sg10
S'http://people.cs.cmu.edu/Person/126"'
p1877
sg12
(lp1878
S'networking'
p1879
aS'pervasive computing'
p1880
aS'distributed computing'
p1881
asg16
g17
sa(dp1882
g2
g3
sg4
S'Mark Stehlik'
p1883
sg6
S'Teaching Professor / Asst Dean Ugrad Ed'
p1884
sg8
S'http://people.cs.cmu.edu/Thumb/19'
p1885
sg22
g140
sg10
S'http://people.cs.cmu.edu/Person/19"'
p1886
sg16
g17
sa(dp1887
g2
g3
sg4
S'Aaron Steinfeld'
p1888
sg6
S'Senior Systems Scientist'
p1889
sg8
S'http://people.cs.cmu.edu/Thumb/414'
p1890
sg10
S'http://people.cs.cmu.edu/Person/414"'
p1891
sg12
(lp1892
S'teleoperation'
p1893
aS'quality-of-life technology'
p1894
aS'mobile robots'
p1895
aS'medical applications'
p1896
aS'intelligent transportation'
p1897
aS'human-robot interaction'
p1898
aS'human-computer interaction'
p1899
aS'human factors'
p1900
aS'design'
p1901
asg16
g17
sa(dp1902
g2
g3
sg4
S'Anthony Stentz'
p1903
sg6
S'Research Professor / Director NREC'
p1904
sg8
S'http://people.cs.cmu.edu/Thumb/107'
p1905
sg10
S'http://people.cs.cmu.edu/Person/107"'
p1906
sg12
(lp1907
S'multirobot systems'
p1908
aS'field robotics'
p1909
asg16
g17
sa(dp1910
g2
g3
sg4
S'Richard Stern'
p1911
sg6
S'Professor'
p1912
sg8
S'http://people.cs.cmu.edu/Thumb/13'
p1913
sg10
S'http://people.cs.cmu.edu/Person/13"'
p1914
sg12
(lp1915
S'robust automatic speech recognition'
p1916
aS'auditory perception'
p1917
aS'signal processing'
p1918
asg16
g17
sa(dp1919
g2
g3
sg4
S'George Stetten'
p1920
sg6
S'Research Professor'
p1921
sg8
S'http://people.cs.cmu.edu/Thumb/324'
p1922
sg10
S'http://people.cs.cmu.edu/Person/324"'
p1923
sg12
(lp1924
S'teleoperation'
p1925
aS'object recognition'
p1926
aS'medical robotics'
p1927
aS'medical imaging'
p1928
aS'medical applications'
p1929
aS'image processing'
p1930
aS'haptics'
p1931
aS'education'
p1932
aS'display devices'
p1933
aS'data visualization'
p1934
aS'bioengineering'
p1935
asg16
g17
sa(dp1936
g2
g3
sg4
S'Klaus Sutner'
p1937
sg6
S'Teaching Prof.  / Assoc. Dean Ugrad Prog. SCS'
p1938
sg8
S'http://people.cs.cmu.edu/Thumb/217'
p1939
sg10
S'http://people.cs.cmu.edu/Person/217"'
p1940
sg12
(lp1941
S'automata theory'
p1942
aS'computational mathematics'
p1943
aS'discrete dynamics'
p1944
asg16
g17
sa(dp1945
g2
g3
sg4
S'Katia Sycara'
p1946
sg6
S'Research Professor'
p1947
sg8
S'http://people.cs.cmu.edu/Thumb/9'
p1948
sg10
S'http://people.cs.cmu.edu/Person/9"'
p1949
sg12
(lp1950
S'activity and intent recongition'
p1951
aS'decentralized optimization'
p1952
aS'complex dynamical systems'
p1953
aS'multi-agent systems'
p1954
aS'human-robot interaction'
p1955
aS'artificial intelligence'
p1956
asg16
g17
sa(dp1957
g2
g3
sg4
S'Sujata Telang'
p1958
sg6
S'Associate Teaching Professor'
p1959
sg8
S'http://people.cs.cmu.edu/Thumb/396'
p1960
sg22
g140
sg10
S'http://people.cs.cmu.edu/Person/396"'
p1961
sg16
g17
sa(dp1962
g2
g3
sg4
S'Karen Thickman'
p1963
sg6
S'Assistant Teaching Professor'
p1964
sg8
S'http://people.cs.cmu.edu/Thumb/1280'
p1965
sg22
g140
sg10
S'http://people.cs.cmu.edu/Person/1280"'
p1966
sg16
g17
sa(dp1967
g2
g3
sg4
S'Charles Thorpe'
p1968
sg6
S'Professor'
p1969
sg8
S'http://people.cs.cmu.edu/Thumb/1447'
p1970
sg10
S'http://people.cs.cmu.edu/Person/1447"'
p1971
sg12
(lp1972
S'teleoperation'
p1973
aS'stereo vision'
p1974
aS'mobile robots'
p1975
aS'human-computer interaction'
p1976
aS'computer vision'
p1977
asg16
g17
sa(dp1978
g2
g3
sg4
S'Anthony Tomasic'
p1979
sg6
S'Senior System Scientist'
p1980
sg8
S'http://people.cs.cmu.edu/Thumb/471'
p1981
sg22
g140
sg10
S'http://people.cs.cmu.edu/Person/471"'
p1982
sg16
g17
sa(dp1983
g2
g3
sg4
S'Rahul Tongia'
p1984
sg6
S'Senior Systems Scientist'
p1985
sg8
S'http://people.cs.cmu.edu/Thumb/1457'
p1986
sg22
g140
sg10
S'http://people.cs.cmu.edu/Person/1457"'
p1987
sg16
g17
sa(dp1988
g2
g3
sg4
S'David Touretzky'
p1989
sg6
S'Research Professor'
p1990
sg8
S'http://people.cs.cmu.edu/Thumb/26'
p1991
sg10
S'http://people.cs.cmu.edu/Person/26"'
p1992
sg12
(lp1993
S'machine learning'
p1994
aS'computational neuroscience'
p1995
aS'artificial intelligence'
p1996
asg16
g17
sa(dp1997
g2
g3
sg4
S'Adrien Treuille'
p1998
sg6
S'Assistant Professor'
p1999
sg8
S'http://people.cs.cmu.edu/Thumb/897'
p2000
sg10
S'http://people.cs.cmu.edu/Person/897"'
p2001
sg12
(lp2002
S'computer graphics'
p2003
asg16
g17
sa(dp2004
g2
g3
sg4
S'Rodolfo Vega'
p2005
sg6
S'Lecturer, Ict In Education'
p2006
sg8
S'http://people.cs.cmu.edu/Thumb/233'
p2007
sg22
S'Information and Communication Technologies applied to Education; Educational Technology; Learning Design; Intercultural Bilingual Education '
p2008
sg10
S'http://people.cs.cmu.edu/Person/233"'
p2009
sg16
g17
sa(dp2010
g2
g3
sg4
S'Maria Manuela Veloso'
p2011
sg6
S'Herbert Simon Professor of Comp Sci'
p2012
sg8
S'http://people.cs.cmu.edu/Thumb/3'
p2013
sg10
S'http://people.cs.cmu.edu/Person/3"'
p2014
sg12
(lp2015
S'robot soccer'
p2016
aS'planning'
p2017
aS'artificial intelligence'
p2018
asg16
g17
sa(dp2019
g2
g3
sg4
S'Stephan Vogel'
p2020
sg6
S'Assistant Research Professor'
p2021
sg8
S'http://people.cs.cmu.edu/Thumb/1474'
p2022
sg10
S'http://people.cs.cmu.edu/Person/1474"'
p2023
sg12
(lp2024
S'statistical machine translation'
p2025
aS'speech translation'
p2026
aS'multilingual nlp'
p2027
asg16
g17
sa(dp2028
g2
g3
sg4
S'Luis Von Ahn'
p2029
sg6
S'Associate Professor'
p2030
sg8
S'http://people.cs.cmu.edu/Thumb/1470'
p2031
sg22
g140
sg10
S'http://people.cs.cmu.edu/Person/1470"'
p2032
sg16
g17
sa(dp2033
g2
g3
sg4
S'John Vu'
p2034
sg6
S'Director, Biotechnology Innovation and Computation, Distinguished Career Professor '
p2035
sg8
S'http://people.cs.cmu.edu/Thumb/2626'
p2036
sg10
S'http://people.cs.cmu.edu/Person/2626"'
p2037
sg12
(lp2038
S'director'
p2039
aS'biotechnology innovation and computation'
p2040
aS'distinguished career professor'
p2041
asg16
g17
sa(dp2042
g2
g3
sg4
S'Howard Wactlar'
p2043
sg6
S'Vice Provost Res Computing / Res. Professor'
p2044
sg8
S'http://people.cs.cmu.edu/Thumb/15'
p2045
sg10
S'http://people.cs.cmu.edu/Person/15"'
p2046
sg12
(lp2047
S'information retrieval systems'
p2048
aS'multimedia'
p2049
aS'speech/image/natural language understanding'
p2050
aS'distributed systems'
p2051
aS'multidisciplinary research: e'
p2052
aS'informedia digital video library'
p2053
asg16
g17
sa(dp2054
g2
g3
sg4
S'Alexander Waibel'
p2055
sg6
S'Professor'
p2056
sg8
S'http://people.cs.cmu.edu/Thumb/1441'
p2057
sg10
S'http://people.cs.cmu.edu/Person/1441"'
p2058
sg12
(lp2059
S'perceptual user interfaces'
p2060
aS'speech'
p2061
aS'language'
p2062
aS'multimodal human computer interaction'
p2063
aS'face / body tracking and interpretation'
p2064
asg16
g17
sa(dp2065
g2
g3
sg4
S'Larry Wasserman'
p2066
sg6
S'Professor'
p2067
sg8
S'http://people.cs.cmu.edu/Thumb/86'
p2068
sg22
g140
sg10
S'http://people.cs.cmu.edu/Person/86"'
p2069
sg16
g17
sa(dp2070
g2
g3
sg4
S'Lee Weiss'
p2071
sg6
S'Research Professor'
p2072
sg8
S'http://people.cs.cmu.edu/Thumb/60'
p2073
sg10
S'http://people.cs.cmu.edu/Person/60"'
p2074
sg12
(lp2075
S'tissue engineering'
p2076
aS'rapid prototyping'
p2077
aS'quality-of-life technology'
p2078
aS'medical robotics'
p2079
asg16
g17
sa(dp2080
g2
g3
sg4
S'Kurt Wescoe'
p2081
sg6
S'Ebusiness Research Fellow'
p2082
sg8
S'http://people.cs.cmu.edu/Thumb/546'
p2083
sg22
g140
sg10
S'http://people.cs.cmu.edu/Person/546"'
p2084
sg16
g17
sa(dp2085
g2
g3
sg4
S'David Wettergreen'
p2086
sg6
S'Research Professor'
p2087
sg8
S'http://people.cs.cmu.edu/Thumb/355'
p2088
sg10
S'http://people.cs.cmu.edu/Person/355"'
p2089
sg12
(lp2090
S'visual tracking'
p2091
aS'space robotics'
p2092
aS'planning'
p2093
aS'mobile robots'
p2094
aS'machine learning'
p2095
aS'legged locomotion'
p2096
aS'field robotics'
p2097
aS'computer vision'
p2098
aS'artificial intelligence'
p2099
aS'architectures'
p2100
aS'human-robot interaction'
p2101
aS'systems engineering'
p2102
aS'autonomous navigation'
p2103
asg16
g17
sa(dp2104
g2
g3
sg4
S'William Red Whittaker'
p2105
sg6
S'Fredkin University Research Professor'
p2106
sg8
S'http://people.cs.cmu.edu/Thumb/75'
p2107
sg22
S'Mobile robots in field environments such as work sites and natural terrain; computer architectures to control mobile robots; modeling and planning for non-repetitive tasks '
p2108
sg10
S'http://people.cs.cmu.edu/Person/75"'
p2109
sg16
g17
sa(dp2110
g2
g3
sg4
S'Jeannette Wing'
p2111
sg6
S'Professor'
p2112
sg8
S'http://people.cs.cmu.edu/Thumb/14'
p2113
sg10
S'http://people.cs.cmu.edu/Person/14"'
p2114
sg12
(lp2115
S'trustworthy computing'
p2116
aS'security'
p2117
aS'privacy'
p2118
aS'formal methods'
p2119
aS'distributed and concurrent systems'
p2120
aS'programming languages'
p2121
aS'software engineering'
p2122
asg16
g17
sa(dp2123
g2
g3
sg4
S'Wei Wu'
p2124
sg6
S'Associate Research Professor'
p2125
sg8
S'http://people.cs.cmu.edu/Thumb/3193'
p2126
sg22
g140
sg10
S'http://people.cs.cmu.edu/Person/3193"'
p2127
sg16
g17
sa(dp2128
g2
g3
sg4
S'Poe Xing'
p2129
sg6
S'Associate Professor'
p2130
sg8
S'http://people.cs.cmu.edu/Thumb/517'
p2131
sg10
S'http://people.cs.cmu.edu/Person/517"'
p2132
sg12
(lp2133
S'computational biology'
p2134
aS'machine learning'
p2135
aS'computational statistics'
p2136
asg16
g17
sa(dp2137
g2
g3
sg4
S'Yiming Yang'
p2138
sg6
S'Professor'
p2139
sg8
S'http://people.cs.cmu.edu/Thumb/227'
p2140
sg22
S'Information Retrieval, researching in machine learning applied to text classification, translingual retrieval and text mining '
p2141
sg10
S'http://people.cs.cmu.edu/Person/227"'
p2142
sg16
g17
sa(dp2143
g2
g3
sg4
S'Ge Yang'
p2144
sg6
S'Assistant Professor'
p2145
sg8
S'http://people.cs.cmu.edu/Thumb/2648'
p2146
sg10
S'http://people.cs.cmu.edu/Person/2648"'
p2147
sg12
(lp2148
S'computational cell biology'
p2149
aS'bioimaging informatics'
p2150
aS'molecular cell mechanics'
p2151
aS'fluorescence imaging'
p2152
asg16
g17
sa.