(lp0
(dp1
S'image'
p2
S'http://media5.picsearch.com/is?zo4VGRJm5ftcPRo9hsMCHb3qy3Bnoe5bsH84LmiJnLo'
p3
sS'name'
p4
S'Merritt Roe Smith'
p5
sa(dp6
g2
S'http://media4.picsearch.com/is?tfBIwrV7nJb9O7K3kKqfTAnD_e1gJDzDgtsAHMgJj14'
p7
sg4
S'Clapperton Mavhunga'
p8
sa(dp9
g2
S'http://media4.picsearch.com/is?L_IuEkd8Bxkz8_n8ynY6_z3l5sDXFdcUsibnmgiwoRU'
p10
sg4
S'David Kaiser'
p11
sa(dp12
g2
S'http://media1.picsearch.com/is?4gYc0WCn87fTuwEgLBm_cLLNaFigl9LgCGq29exBYNs'
p13
sg4
S'Kenneth R. Manning'
p14
sa(dp15
g2
S'http://media4.picsearch.com/is?9x917xSHBGxqJA-7fTxUBsEBda3NYKLiiYm9OvbF5dw'
p16
sg4
S'Michael Fischer'
p17
sa(dp18
g2
S'http://media2.picsearch.com/is?W_BJvrH0NJ2l0ThwMf9yiqG3vFOE3WlholL_D-1glzw'
p19
sg4
S'Rosalind Williams'
p20
sa(dp21
g2
S'http://media3.picsearch.com/is?KCRd-PcWWebYlyhxBceGfAKfrWymYIHHore-LO23ECU'
p22
sg4
S'Sherry Turkle'
p23
sa(dp24
g2
S'http://media2.picsearch.com/is?GzM32R7f7yc2itggvRqGFBhaA2hm9gp68eYgVF67zjA'
p25
sg4
S'Hanna Rose Shell'
p26
sa(dp27
g2
S'http://media1.picsearch.com/is?eel8UemWUg7CL8ZsRYffKGhBDGyrCPU8bHCY7iCgJK0'
p28
sg4
S'Natasha Schull'
p29
sa(dp30
g2
S'http://media3.picsearch.com/is?LW6-v8vxxWcNh7GMZYSg1R0Lehl4BZlvdAvqAf7wb2I'
p31
sg4
S'Steven D. Eppinger'
p32
sa(dp33
g2
S'http://media2.picsearch.com/is?ZZG-Hg9TK1Dj-QPDkfhLC6Co6cCQZ51LNZD0Y-Rgr08'
p34
sg4
S'Stephen C. Graves'
p35
sa(dp36
g2
S'http://media4.picsearch.com/is?Phx8oLTN7j7On6ss_jmgbg1Svxjvtf1fxhR6MAkDR2Q'
p37
sg4
S'John Durant'
p38
sa(dp39
g2
S'http://media5.picsearch.com/is?fCBg0VUyQdz13jne72-4r_5vgi6qiCpx0I-vPc69Gck'
p40
sg4
S'Vincent Lepinay'
p41
sa(dp42
g2
S'http://media2.picsearch.com/is?ROQzUsP8jZ5FpDJpvB_AjhbxYgcDIVbxRZmv06df_Z4'
p43
sg4
S'Thomas W. Eagar'
p44
sa(dp45
g2
S'http://media3.picsearch.com/is?uVAcFgmV6SqLXSTaghI3Ch4aMyQpzku1HlwIIcdSnek'
p46
sg4
S'Maria Yang'
p47
sa(dp48
g2
S'http://media1.picsearch.com/is?_Q7NyWDPnL2W-MLFLr-zCUtkxS1L8CMnawVi2bX939Q'
p49
sg4
S'Warren P. Seering'
p50
sa(dp51
g2
S'http://media5.picsearch.com/is?oLout9zXMsWTCs-OrWy8gz2bU2ypTpZQ_nfko0Dcn8Y'
p52
sg4
S'Thomas J. Allen'
p53
sa(dp54
g2
S'http://media5.picsearch.com/is?Pem2JB7OQD_hAMhyTiwppKXUcXewnJZeTUYh_yKlgkk'
p55
sg4
S'George E. Apostolakis'
p56
sa(dp57
g2
S'http://media2.picsearch.com/is?OceL8Hbh3gyKPkg2OrZsej1bFkVltkC0MlyyaVHsZ9U'
p58
sg4
S'Jessika Trancik'
p59
sa(dp60
g2
S'http://media3.picsearch.com/is?U_A29ARX_kzV6Uw1-_aNXVevtCPxwg63NqPMwE7F-9I'
p61
sg4
S'Dava Newman'
p62
sa(dp63
g2
S'http://media5.picsearch.com/is?G7FXINBFyO6xZgsGcVxT6YQ6IE-ZLzWJNf8Bx_kDmJs'
p64
sg4
S'Noelle Eckley Selin'
p65
sa(dp66
g2
S'http://media1.picsearch.com/is?jYgpgBgplK5DJpMIeBDsrfLW3rW5TZuw4nmdPmt8bXU'
p67
sg4
S'Neil E. Todreas'
p68
sa(dp69
g2
S'http://media4.picsearch.com/is?MNK515mvFc6rM5IvzFbNJd_nkq6C0946MMmfV-vgb-0'
p70
sg4
S'Mary (Missy) Cummings'
p71
sa(dp72
g2
S'http://media5.picsearch.com/is?KeKhj49C6R20xCcS86XDYr79va9kptixYk7Ci28_zTI'
p73
sg4
S'Ruth Perry'
p74
sa(dp75
g2
S'http://media5.picsearch.com/is?kv2cmKkZ_PcifZtgEBYa8_7by1yqHNR2z_z6Awur4Ic'
p76
sg4
S'Anne McCants'
p77
sa(dp78
g2
S'http://media5.picsearch.com/is?UCZIWWBUCcFRo0JpNCtXyhJpUex9lbLOQZHn1wRYqVY'
p79
sg4
S'Elizabeth Garrels'
p80
sa(dp81
g2
S'http://media2.picsearch.com/is?Yoom2e2TFbLrS48p4-8LTHZc0VwXqkAPICUMpVyYtZI'
p82
sg4
S'Bruno Perreau'
p83
sa(dp84
g2
S'http://media1.picsearch.com/is?gILHGspIkPYcUZZQA7TH6GuBvWCDJ_muCv2L6Asup20'
p85
sg4
S'Shigeru Miyagawa'
p86
sa(dp87
g2
S'http://media4.picsearch.com/is?4JBN_14mbf72H1C4rjljKDI3bMu4JTq8_ZnwOwNFnUQ'
p88
sg4
S'Ian Condry'
p89
sa(dp90
g2
S'http://media4.picsearch.com/is?ye9OXhDDDgaK5Z7wkZn8LTSRJ-p043utdxlkuhFOMvo'
p91
sg4
S'James G. Fox'
p92
sa(dp93
g2
S'http://media5.picsearch.com/is?I9qMJgxeDHW1DDzksxJCaKul86WTcmVcAD4pPORuPUw'
p94
sg4
S'Susan Silbey'
p95
sa(dp96
g2
S'http://media2.picsearch.com/is?Nj46MmJQ_iGfKR1-iLsLvB-vkuvOxoflDaE_XFsZq1A'
p97
sg4
S'Ernest Fraenkel'
p98
sa(dp99
g2
S'http://media4.picsearch.com/is?NtfCwx7YnaKvat2BeYwe96zJeuV8T_mePysLXfhabAg'
p100
sg4
S'Kimberly Hamad-Schifferli'
p101
sa(dp102
g2
S'http://media3.picsearch.com/is?QFGaURozTxE1gTeTzsLe7YjaqQG59YK0KzAWUUPYbFE'
p103
sg4
S'Angela Belcher'
p104
sa(dp105
g2
S'http://media4.picsearch.com/is?KRv6aAQmB_mU8trNXNUHC07hH_Rcl10f_IAmmwweMB0'
p106
sg4
S'Eric Alm'
p107
sa(dp108
g2
S'http://media1.picsearch.com/is?jSPT2GlvZm-hxrpL1Usa-r0ZmnCj61hRR36Km63O_PU'
p109
sg4
S'Mark Bathe'
p110
sa(dp111
g2
S'http://media3.picsearch.com/is?3ufE6OhTflPHpJz3MUNAhx_WPJglXpRnGHZWmNdw_W8'
p112
sg4
S'Chris Burge'
p113
sa(dp114
g2
S'http://media4.picsearch.com/is?Sb4AmUdT2f0FtiMKb-flmz3qn9IpdwpOaN4Yji2M46E'
p115
sg4
S'Charles Stewart'
p116
sa(dp117
g2
S'http://media1.picsearch.com/is?_gzuUv-7Mxv_Gk3Hn5Ct8MzSJwhMJnP2AzPb1PyEeEY'
p118
sg4
S'Kathleen Thelen'
p119
sa(dp120
g2
S'http://media1.picsearch.com/is?ItQF7BhNsbv6miHSFV4cICivWGEyE0rhIjrbSag_fbw'
p121
sg4
S'Lily Tsai'
p122
sa(dp123
g2
S'http://media2.picsearch.com/is?KiLkZdqXgj0Vpu86m14mPiVYqFNgd6EOOxoG5qVVjhc'
p124
sg4
S'Richard Samuels'
p125
sa(dp126
g2
S'http://media4.picsearch.com/is?wzD09tyMMMFM926ixIYCi5li_vZ4AQ3_GXnwE4W3l4w'
p127
sg4
S'Edward Steinfeld'
p128
sa(dp129
g2
S'http://media4.picsearch.com/is?SbQ6BCvl6t12WzOMlNTww3rRDjg32FkJmPM9rOvZGUk'
p130
sg4
S'Roger Petersen'
p131
sa(dp132
g2
S'http://media5.picsearch.com/is?90o_cJB7z3uxnOl1J3UZey-xN7oKlXu1iZFSTa8UXjI'
p133
sg4
S'Barry Posen'
p134
sa(dp135
g2
S'http://media2.picsearch.com/is?p90RgvdorU9wMt1AZxcjHlQkf5hdTBkULXQyxGwb7Dc'
p136
sg4
S'Melissa Nobles'
p137
sa(dp138
g2
S'http://media5.picsearch.com/is?CrTm_mz33mkhuRuUit1zk5D8FVW4R10oYSPnoMVbgIE'
p139
sg4
S'Gabriel Lenz'
p140
sa(dp141
g2
S'http://media1.picsearch.com/is?Q0f0FuNVMpEK4zoasyEayvMFeYghalDRx6gnzf5YHwg'
p142
sg4
S'Chappell Lawson'
p143
sa(dp144
g2
S'http://media5.picsearch.com/is?dOgCd0U__FCqQ_rkf9QQjFRRdwn2xPg1oKp02epR99s'
p145
sg4
S'Fotini Christia'
p146
sa(dp147
g2
S'http://media2.picsearch.com/is?Scm9BsiB3WQvhL7rYRlWtVeHif6HmGY7_mchMSXy5tg'
p148
sg4
S'Annalisa L. Weigel'
p149
sa(dp150
g2
S'http://media1.picsearch.com/is?vjiIAfMC-hLgtaIMEBRRDs_DsvyaCe9tWqOuq1RsTTY'
p151
sg4
S'Karen E. Willcox'
p152
sa(dp153
g2
S'http://media2.picsearch.com/is?OYfYc9wLQU_HjY-mlfpJIMba15R0F8jz_yX_xlw9xwE'
p154
sg4
S'Laurence R. Young'
p155
sa(dp156
g2
S'http://media4.picsearch.com/is?GbJMNIgcZfDdrt24VmBBxJJOIGW2TXkjbOoNIoe6TMc'
p157
sg4
S'Edward F. Crawley'
p158
sa(dp159
g2
S'http://media4.picsearch.com/is?k9aMBe1MwA4phc5fRA59s_EaIReZK1O2EOengPuZ3n4'
p160
sg4
S'Daniel E. Hastings'
p161
sa(dp162
g2
S'http://media5.picsearch.com/is?b4JjaXDWIU-hIGQ9NUQl5o5D6r4MzrGZnb88BxzJwB0'
p163
sg4
S'Qiqi Wang'
p164
sa(dp165
g2
S'http://media2.picsearch.com/is?DD2ca1fKu-by4dHvnPH2i6LPP1gzh5GZJ4ZC36tPoq4'
p166
sg4
S'Dava J. Newman'
p167
sa(dp168
g2
S'http://media2.picsearch.com/is?jB0BkK7I-KtCaG6nRwl5l7CRl2ori6gS_KTW8UAZ53M'
p169
sg4
S'Amedeo R. Odoni'
p170
sa(dp171
g2
S'http://media5.picsearch.com/is?XdGgnpvAdb12MEOkFDMwKi025jezZzl-F4A6iecQvcA'
p172
sg4
S'Jaime Peraire'
p173
sa(dp174
g2
S'http://media1.picsearch.com/is?2wVia5Ztie61be2gsU3tSnot30JFGHjEBzoTq83ETkg'
p175
sg4
S'Ian A. Waitz'
p176
sa(dp177
g2
S'http://media2.picsearch.com/is?wTvzCAcG3xQ15_LOm8vfkRMUpWvHlmMhKorv6IFRZPY'
p178
sg4
S'Paul A. Lagace'
p179
sa(dp180
g2
S'http://media5.picsearch.com/is?r20_Cdxj0x_hMszy2zq09GFoq-AgDM08hL91qJKjWD0'
p181
sg4
S'Paulo C. Lozano'
p182
sa(dp183
g2
S'http://media1.picsearch.com/is?Lf0Ofnl6G2QxjbGfvXoYnFCd96d85vbYiucekdHlKgg'
p184
sg4
S'Manuel Martinez-Sanchez'
p185
sa(dp186
g2
S'http://media3.picsearch.com/is?Vkx0GaMGRxg93_qt8nuEngle_ZdofcdcO191XXn4b30'
p187
sg4
S'Wesley L. Harris'
p188
sa(dp189
g2
S'http://media3.picsearch.com/is?_VPrw51CyF4MziDP_6nmNC1Ju4LhQjvekQOBLI-AP7U'
p190
sg4
S'Edward M. Greitzer'
p191
sa(dp192
g2
S'http://media5.picsearch.com/is?ksopD5rqgHenlrSXpojpEhdHDz_LOT9xy4_W_suii1I'
p193
sg4
S'Robert Townsend'
p194
sa(dp195
g2
S'http://media3.picsearch.com/is?-n6IeNLs9B7YAXGvSIy9CPpuDRQO9p8tcByzf9FjgOg'
p196
sg4
S'Hamsa Balakrishnan'
p197
sa(dp198
g2
S'http://media5.picsearch.com/is?DfAC-Owb9BQ0iwEh9EmNRzrnCvE7bdF15EpgXi7KpTQ'
p199
sg4
S'Stephen Ryan'
p200
sa(dp201
g2
S'http://media3.picsearch.com/is?If-GO9Kzn1yBMKuik8TlroKGrvXOg0f7U8fZFDGX_9M'
p202
sg4
S'Richard Schmalensee'
p203
sa(dp204
g2
S'http://media4.picsearch.com/is?CZNe4Go-7FJYq7l3Sw-tTms3iofxrJhtoiq115H76KY'
p205
sg4
S'Joshua Angrist'
p206
sa(dp207
g2
S'http://media2.picsearch.com/is?1-BhHmSe2viK1HiJCQW-PwxE1oVvPbOueJKODa-3IzA'
p208
sg4
S'Whitney Newey'
p209
sa(dp210
g2
S'http://media5.picsearch.com/is?vkDHx5zThXo06GqwBSbi10O8kwsLAODehhenUlDcMRY'
p211
sg4
S'Parag Pathak'
p212
sa(dp213
g2
S'http://media5.picsearch.com/is?HYPhaNNgGSmHaoDYjsPtl_LfFeSWHKv-2qZrh6zl064'
p214
sg4
S'Ben Olken'
p215
sa(dp216
g2
S'http://media3.picsearch.com/is?Pntc4MmlLNJ7hkUm4dimNzbvohPmGNkGKYqbrWaUH58'
p217
sg4
S'Juuso Toikka'
p218
sa(dp219
g2
S'http://media4.picsearch.com/is?vq2JXbLSPetTZGIY-zDv8fRa6MRn70XGrBks1ytl7XI'
p220
sg4
S'Olivier Blanchard'
p221
sa(dp222
g2
S'http://media4.picsearch.com/is?iQnkCcgKirYvjErdpEuqViEsDCiroo-ZeZn3lzQB6Fk'
p223
sg4
S'Sara Ellison'
p224
sa(dp225
g2
S'http://media1.picsearch.com/is?gWv4DDxpR9lhvflPtAGu0PjRRSZEPYk5JM7vJ4RhvHM'
p226
sg4
S'Jonathan Gruber'
p227
sa(dp228
g2
S'http://media1.picsearch.com/is?kkIJg-geEMIhbPQL_AHojtrPPDx-yF5kcC9d8YwCFwU'
p229
sg4
S'Jeffrey Harris'
p230
sa(dp231
g2
S'http://media4.picsearch.com/is?pWBqgYAgooj_5J6mdSVR02af6s5I2qpwAi66sh4Cu9w'
p232
sg4
S'Jerry Hausman'
p233
sa(dp234
g2
S'http://media3.picsearch.com/is?ncqLkBefvdKv1Yn2rv3OqyLGCVIY8_vs416qFli-4mU'
p235
sg4
S'Alan Plumb'
p236
sa(dp237
g2
S'http://media5.picsearch.com/is?L6y6UOQswu3MZltdB4KTuatnWNhFoioZSNMSkjY49ic'
p238
sg4
S'Taylor Perron'
p239
sa(dp240
g2
S'http://media4.picsearch.com/is?BGxmuoYh_3kvIcASXpO0asmZk0qdoB8dFvoB1vcFK38'
p241
sg4
S'Dan Cziczo'
p242
sa(dp243
g2
S'http://media5.picsearch.com/is?qZK_CL8LSo2Jy_qpwGMNjIp2BHvagebp_M7TVKlxK90'
p244
sg4
S'Shuhei Ono'
p245
sa(dp246
g2
S'http://media2.picsearch.com/is?Ur_5_SmhZtaXNYET15EiJJW10OyVsleGrH6OYoihhzY'
p247
sg4
S'Richard Binzel'
p248
sa(dp249
g2
S'http://media5.picsearch.com/is?2fHJ3NQjC6R3gMkFJVSpf6Mo0mfmw4I5BTAqJg3Y0xk'
p250
sg4
S'Kerri Cahoy'
p251
sa(dp252
g2
S'http://media3.picsearch.com/is?k3pra-hZ5y1Dw-gXMxWvaPUQPH03P1c0w_mkZ8iWinM'
p253
sg4
S'Carl Wunsch'
p254
sa(dp255
g2
S'http://media1.picsearch.com/is?wpIGQgEKvszLq4l04DAAoEnPdL8ccdhw99u3qMFQNXE'
p256
sg4
S'Maria T. Zuber'
p257
sa(dp258
g2
S'http://media5.picsearch.com/is?qDRwzG__iv3bAp511i3C8quPdM42EUFyI9P1pwxpv8g'
p259
sg4
S'Sara Seager'
p260
sa(dp261
g2
S'http://media5.picsearch.com/is?Nv1ISNqU_SBqsOTH2jn5dxYVKBOxHzgmxKu-lQTXVbc'
p262
sg4
S'Jack Wisdom'
p263
sa(dp264
g2
S'http://media2.picsearch.com/is?5QmaqnFzNPc-yJpeBypcbV0g99Bmdv89Y3lf6K65uUY'
p265
sg4
S'Ronald G. Prinn'
p266
sa(dp267
g2
S'http://media3.picsearch.com/is?gMr1SglzpRsQI97J0kohTMW7X3zz3v1PyJ6t6Fm2Dxc'
p268
sg4
S'Leigh Royden'
p269
sa(dp270
g2
S'http://media1.picsearch.com/is?1IWEX32E-QjAYbg64jO94BiMxQyD89jsSST0s-xyaw0'
p271
sg4
S'Alison Malcom'
p272
sa(dp273
g2
S'http://media3.picsearch.com/is?m6rPcuIpm_Vfe9h50WQC5tVGffsxPaXGUKS0AQQ7qow'
p274
sg4
S'John Marshall'
p275
sa(dp276
g2
S'http://media3.picsearch.com/is?JUyk1SAVcJ1uVaV-W6hp4-mD9uRQmyhJXJ76-7ev0LU'
p277
sg4
S'F. Dale Morgan'
p278
sa(dp279
g2
S'http://media1.picsearch.com/is?tCrkFDNwfkP5ozN3cTu3wAgP0Ya7fiF3aNfPN1usqss'
p280
sg4
S'Richard S. Lindzen'
p281
sa(dp282
g2
S'http://media3.picsearch.com/is?cjsN7f9oORvJPl5iSLNllDnG2Q8Vdw3C_UrfBxh9acg'
p283
sg4
S'Oliver Jagoutz'
p284
sa(dp285
g2
S'http://media1.picsearch.com/is?3Zmuc-51o7qdiHHbexvj3TM3m7CHtprZxuncV4tZLaA'
p286
sg4
S'Frederick A. Frey'
p287
sa(dp288
g2
S'http://media3.picsearch.com/is?Fw9I0vw59EpliiWfKa9d3P_81OABl9SdE1f_ml5gpQU'
p289
sg4
S'Timothy Grove'
p290
sa(dp291
g2
S'http://media5.picsearch.com/is?sLv_3476_gDb3V_v0mO4fAXDRHyjqbfIDACkB5_uK8U'
p292
sg4
S'Bradford Hager'
p293
sa(dp294
g2
S'http://media3.picsearch.com/is?LycAr1ax5ZiyeX9CuyOGyNsSz5lc8sOp0aNlKnerbJc'
p295
sg4
S'Thomas Herring'
p296
sa(dp297
g2
S'http://media4.picsearch.com/is?9clNimNONT1B5v0f-07U2zb5BJynOA7n6b-SK95Tnwc'
p298
sg4
S'Glen Flierl'
p299
sa(dp300
g2
S'http://media2.picsearch.com/is?NICU3fYpOAZL-DIEu0-N90xBBYTebn9DRcehaLAKOk8'
p301
sg4
S'Kerry Emanuel'
p302
sa(dp303
g2
S'http://media3.picsearch.com/is?Hr-snfspwxqe14OFZh-43I_DzTlSMLv0w5JdwNHRzvE'
p304
sg4
S'Brian Evans'
p305
sa(dp306
g2
S'http://media1.picsearch.com/is?wve9fOTrGvMxdRojaJwXVCgfzMIYKnt-ssdxvl2oXV8'
p307
sg4
S'Raffaele Ferrari'
p308
sa(dp309
g2
S'http://media5.picsearch.com/is?SOi7j7JnoZc7HbhMN4LhCed8pZCNLwFpkyL2I0-W21Q'
p310
sg4
S'Tanya Bosak'
p311
sa(dp312
g2
S'http://media2.picsearch.com/is?em97-3-KYrpOMGj7Zu8g4efq3FlK9djWH9ZJcw1ipOE'
p313
sg4
S'Samuel Bowring'
p314
sa(dp315
g2
S'http://media1.picsearch.com/is?HASx_gD0wKYrhcLggshJEXigpKxJ3__cqDXUCpakKBA'
p316
sg4
S'Edward Boyle'
p317
sa(dp318
g2
S'http://media3.picsearch.com/is?DaU_SySXaIshXEePv5TAmOpLd-WvU6FrTw5RAMIs6cU'
p319
sg4
S'Ceasar McDowell'
p320
sa(dp321
g2
S'http://media3.picsearch.com/is?On5mVJmkS1G-_43cqJh-WYHXADFgiuJQ4pJ2955aLSo'
p322
sg4
S'Robert Fogelson'
p323
sa(dp324
g2
S'http://media5.picsearch.com/is?GLc95xqw-4PNQpSpgDTa-LuiiJE9nA7nW5uda1Bw5wg'
p325
sg4
S'Lawrence Susskind'
p326
sa(dp327
g2
S'http://media2.picsearch.com/is?SMFJsOkGpRDJXFgT7s3tN12_lP9l3kBWmQUk7F6JY3Q'
p328
sg4
S'Alice Amsden'
p329
sa(dp330
g2
S'http://media4.picsearch.com/is?3uI2i0w7A9X11LiikCfYUMYPvO_zfraYAclJqQHfm20'
p331
sg4
S'Susan Silberberg-Robinson'
p332
sa(dp333
g2
S'http://media1.picsearch.com/is?GgwbwCbng2idXq3gCVdBrhH4dnjKKJnj_iAvhmQ806w'
p334
sg4
S'Mriganka Sur'
p335
sa(dp336
g2
S'http://media2.picsearch.com/is?2wLwuBSeXfqxohqRJ6slkBtfJdG2EgmYF7udzT3Jtho'
p337
sg4
S'Laura Schulz'
p338
sa(dp339
g2
S'http://media1.picsearch.com/is?UIwBdSdWy_P-zCn_3mcWt4A5LuKp2by3Dq-TLUH84bw'
p340
sg4
S'Edward Adelson'
p341
sa(dp342
g2
S'http://media1.picsearch.com/is?l5mIoPnmb1a6zP0N8XoJvLU5oskW90C84UAhOo8hLGc'
p343
sg4
S'James DiCarlo'
p344
sa(dp345
g2
S'http://media3.picsearch.com/is?BlQ3qNMoJMwRi-BQB6TRMjoHMBhszo2KNu6TxvnVW0M'
p346
sg4
S'Jean Jackson'
p347
sa(dp348
g2
S'http://media1.picsearch.com/is?h1CHElIXIyUwCRQhapGAUIXHj_W8wEkyLpGFJ1o83NQ'
p349
sg4
S'Nancy Kanwisher'
p350
sa(dp351
g2
S'http://media5.picsearch.com/is?y4wn2ftlIRGSEIKaykEe_V9Zu09hHIbKytz-ckrhh4c'
p352
sg4
S'Troy Littleton'
p353
sa(dp354
g2
S'http://media3.picsearch.com/is?ruH3XwHmi0GtQ6Rk5-km0Sja1HbEDCNaM1CK0qrXg20'
p355
sg4
S'Graham Jones'
p356
sa(dp357
g2
S'http://media2.picsearch.com/is?J96DGWdRtWEBfmRlZaSvrVIbx-GQS0nk32Z9cURKrrw'
p358
sg4
S'Heather Paxson'
p359
sa(dp360
g2
S'http://media2.picsearch.com/is?5FsodgAfH0AzS6OqXhRGvHGCQOl_eB3Ag-YgxKWNnB4'
p361
sg4
S'Michael Yaffe'
p362
sa(dp363
g2
S'http://media3.picsearch.com/is?dPrrUYMuTQZlrSkPO1cg8R00B-SFnyyYR3hh5pckRMY'
p364
sg4
S'Leona Samson'
p365
sa(dp366
g2
S'http://media3.picsearch.com/is?EHOsenuZrm5P4eW4VzIB73gV3hmZgF-cTrPNG2kfHEw'
p367
sg4
S'Elly Nedivi'
p368
sa(dp369
g2
S'http://media3.picsearch.com/is?1Ymq2TPaHmoYSzr45-oaNNmD0fDGmYIWid2g70Tp0YQ'
p370
sg4
S'Adam Martin'
p371
sa(dp372
g2
S'http://media3.picsearch.com/is?F6y3O2aOGFWMHDU30efg46hIOlNj0l2GOGLafNY8a4s'
p373
sg4
S'Herman Eisen'
p374
sa(dp375
g2
S'http://media3.picsearch.com/is?_yyxeNZDYmbX1NLZrSxkGYPe-8bM_4uH_PAiQ3Yl8n8'
p376
sg4
S'Stephen P. Bell'
p377
sa(dp378
g2
S'http://media3.picsearch.com/is?i_qYNjUd9OYn0X1UTUFXInxlrc9bJi3d8wJb_BQ0h_o'
p379
sg4
S'Martha Costantine-Paton'
p380
sa(dp381
g2
S'http://media1.picsearch.com/is?m-_PIyYrhvCK-c8JxtwiW4MbfZXO2S-9d1VlQHU45xY'
p382
sg4
S'David P. Bartel'
p383
sa(dp384
g2
S'http://media2.picsearch.com/is?3c2jXijpt6TAETftAzdYZtbhKWm3O7KLez3kyJDFqQ4'
p385
sg4
S'Angelika Amon'
p386
sa(dp387
g2
S'http://media5.picsearch.com/is?AnQds68aVmdYPc5joivqCD-DuhZ6GrJZ3wpIzRYACIo'
p388
sg4
S'William Quinn'
p389
sa(dp390
g2
S'http://media5.picsearch.com/is?G4Y1tLvOHpHGMPDjE-qLOTiG1PmsEYfFzXc9pecWVeQ'
p391
sg4
S'Morgan Sheng'
p392
sa(dp393
g2
S'http://media3.picsearch.com/is?Eu9vS8UfW-x_kPZNSJC5wv-rwf-pgf5l89F5pFVXZJg'
p394
sg4
S'Dennis H. Kim'
p395
sa(dp396
g2
S'http://media2.picsearch.com/is?wSkavjFDbK4b1wmz7CYdHotExwxPwuy7drDQbfrkj2E'
p397
sg4
S'Alan D. Grossman'
p398
sa(dp399
g2
S'http://media2.picsearch.com/is?gshvvUIEy0lyK0dsc9oobjuvv5702wP2rsKqRXnLF58'
p400
sg4
S'Peter Reddien'
p401
sa(dp402
g2
S'http://media5.picsearch.com/is?uf5enNuUGOFeqn-iCLxhhaDZD3i9rkMB7Oky6epbsMM'
p403
sg4
S'Catherine Drennan'
p404
sa(dp405
g2
S'http://media4.picsearch.com/is?U2lyKXfYtObtyMc5Yhi8CNnC8Htmg01tTVz2Z9h44U0'
p406
sg4
S'Jeroen Saeij'
p407
sa(dp408
g2
S'http://media5.picsearch.com/is?nryh_9yW1ooOxGmFdC-a3flSxl0LdtDOg183KwjLj0c'
p409
sg4
S'Nikolai Zeldovich'
p410
sa(dp411
g2
S'http://media4.picsearch.com/is?UpvnN8TrKSvtrDJtCudL4yE2GsVWUqN-jnYi9tW96VY'
p412
sg4
S'Paul Chang'
p413
sa(dp414
g2
S'http://media3.picsearch.com/is?PgbybIsklgeD4OCSUARpROl1BUD2QBmCtCqEY0ADVL8'
p415
sg4
S'Iain Cheeseman'
p416
sa(dp417
g2
S'http://media5.picsearch.com/is?U1zyySStOjyqt2WLrHY3J6ISO4CIzRVIS91J3rTguOw'
p418
sg4
S'John L. Wyatt'
p419
sa(dp420
g2
S'http://media1.picsearch.com/is?HMH85jD1I6IRZJPQkPeasfzhPITZ4_P1NTh5MazXDZE'
p421
sg4
S'Ron Weiss'
p422
sa(dp423
g2
S'http://media1.picsearch.com/is?iS5zFx6t-Pj7LD_s6OqqmT3bqxmyO2x2XvLWc45jSTA'
p424
sg4
S'George C. Verghese'
p425
sa(dp426
g2
S'http://media2.picsearch.com/is?q6TNkQA0kHWo7nUcQJfhCdBYaY8olO54hi7X5sWkOwI'
p427
sg4
S'Rahul Sarpeshkar'
p428
sa(dp429
g2
S'http://media4.picsearch.com/is?yXdz7tQyZl60XtLuKtXdBC9f1Y7IyGV4xhRO7rs1-k0'
p430
sg4
S'Cardinal Warde'
p431
sa(dp432
g2
S'http://media1.picsearch.com/is?uBcqtHX1Y5IcX_MXj6rzHxFJkDu6QEhYaU4qu1QbtOs'
p433
sg4
S'Stephen A. Ward'
p434
sa(dp435
g2
S'http://media3.picsearch.com/is?APJHKAbO7Q72tkAGWyiYX8Z8qVWgYNVpJpFoGFUjE04'
p436
sg4
S'Joel Voldman'
p437
sa(dp438
g2
S'http://media4.picsearch.com/is?_N6PlE-iwmRD7_3h0bzHlUNfNvS_8e7tiWbeyXFfR7M'
p439
sg4
S'Christopher Terman'
p440
sa(dp441
g2
S'http://media1.picsearch.com/is?E5GB0jmi_SJBZfiBJn_fbDmnRk_Dn10D7cANNtFlnIw'
p442
sg4
S'Bruce Tidor'
p443
sa(dp444
g2
S'http://media2.picsearch.com/is?X2f4go1jfnFgcIgHk-bGnsotuOh_9xMj7Afk_tyosu0'
p445
sg4
S'Pablo Parrilo'
p446
sa(dp447
g2
S'http://media3.picsearch.com/is?wLyMV2SrgIDgqXktt1M9PoyZbXX2yz90y0yOa-mi-mI'
p448
sg4
S'Daniela Rus'
p449
sa(dp450
g2
S'http://media2.picsearch.com/is?RIC2I1-vovRnHjTfA5Tpaex9fuxIUMKVRUPt8XXSz6Y'
p451
sg4
S'Ronitt Rubinfield'
p452
sa(dp453
g2
S'http://media5.picsearch.com/is?gtFPlqtBkhOO2ecInRw9WW8B49stgmW7Vazh7_weQW8'
p454
sg4
S'Ronald R. Parker'
p455
sa(dp456
g2
S'http://media4.picsearch.com/is?-4mjT6TEZ64tDuJiCGsdHwETh0yFBWP8cvjtKaJS59Y'
p457
sg4
S'Asuman E. Ozdaglar'
p458
sa(dp459
g2
S'http://media5.picsearch.com/is?zrY2UkERFAwnDwwPnBCMtQ4LUPyzbplqn9eNmw5L_-o'
p460
sg4
S'Joel Moses'
p461
sa(dp462
g2
S'http://media1.picsearch.com/is?T7iDweb91JdQl6Lw45MGP5GXO7GPuCuWwztnlhcqmRA'
p463
sg4
S'Terry P. Orlando'
p464
sa(dp465
g2
S'http://media1.picsearch.com/is?Qc92fHaJXNYZE3bGHG0bXvbojSdvicH6oPNtfPP_fck'
p466
sg4
S'Silvio Micali'
p467
sa(dp468
g2
S'http://media3.picsearch.com/is?o3k6Fsu0zw4nWWnGcgZpgH0c2Cq0Q54XLilGnHZcJkM'
p469
sg4
S'Robert C. Miller'
p470
sa(dp471
g2
S'http://media5.picsearch.com/is?noPKKpLlEUWyaW-AyWi5WZ6mqfx2PkYzljHcFXoH_uI'
p472
sg4
S'Robert T. Morris'
p473
sa(dp474
g2
S'http://media3.picsearch.com/is?GMDrJyQczFZzyZMxnweuyoxvGLwbSJ8A5vCv-smpO9M'
p475
sg4
S'Muriel Medard'
p476
sa(dp477
g2
S'http://media2.picsearch.com/is?yx8r655pO3K5bk8_WMoGqaonPzlTd7NWkYveL3L6vl4'
p478
sg4
S'Roger G. Mark'
p479
sa(dp480
g2
S'http://media3.picsearch.com/is?heLA_eU2BrzHDSbiuxc0xH1K0WzSc2JGIpbq2TgzwrQ'
p481
sg4
S'Timothy K. Lu'
p482
sa(dp483
g2
S'http://media5.picsearch.com/is?tPDqRUMAy5-v6i1bs7s-o7gp4td3L3KFAolgloBZ3Cc'
p484
sg4
S'Sam R. Madden'
p485
sa(dp486
g2
S'http://media5.picsearch.com/is?k8sO7yDjd2cUpdSBTEV9eH6H7c7s-6nuHQEjV1nX3B0'
p487
sg4
S'Jae S. Lim'
p488
sa(dp489
g2
S'http://media1.picsearch.com/is?-K_-EcCZBwSzPeT907ZJ45ATGH2gE6tv80ps2E4nK5U'
p490
sg4
S'Steven B. Leeb'
p491
sa(dp492
g2
S'http://media4.picsearch.com/is?N_D0GDgHSuDQI5mn7Su_H9sGNHSW-iMZUY6uyrjVr54'
p493
sg4
S'Jeffrey H. Lang'
p494
sa(dp495
g2
S'http://media3.picsearch.com/is?qyDavqLP2dk1WeN_zLsRPwrIEhmyVDLS8HdAkyAZhgk'
p496
sg4
S'Hae-Seung Lee'
p497
sa(dp498
g2
S'http://media2.picsearch.com/is?kHtFoByywXlzEoUeGo1gZiRnV48587iTBKIBnhdA7LU'
p499
sg4
S'Daniel N. Jackson'
p500
sa(dp501
g2
S'http://media4.picsearch.com/is?C0EvMI8SS8EitTOZxejbBhaZGoftRgeDnkLTJaNoj48'
p502
sg4
S'Leslie P. Kaelbling'
p503
sa(dp504
g2
S'http://media1.picsearch.com/is?fqR-fhk3fRLDoqDaY-iHiqPwJ6W2GslxUQ6IjdAAzzY'
p505
sg4
S'Jing Kong'
p506
sa(dp507
g2
S'http://media4.picsearch.com/is?YUnYj7RCs4yw7o_IUmfLA7CD8b4JMRj71sHGgiSAmDM'
p508
sg4
S'Leslie A. Kolodziejski'
p509
sa(dp510
g2
S'http://media4.picsearch.com/is?7JVeuWnnEfu2KZTO8J4dLsRFVUw9nDlS3tCtFXgaozc'
p511
sg4
S'Piotr Indyk'
p512
sa(dp513
g2
S'http://media1.picsearch.com/is?cAhnOIu0Zz0bHqqkMi-ZXTjwxXV0LEL9K5MZHrxHc3o'
p514
sg4
S'Tommi Jaakkola'
p515
sa(dp516
g2
S'http://media3.picsearch.com/is?l7fszuJ6MW5yXzhRtXc2zn3h5q1f56H1Fr2jDCcbkaI'
p517
sg4
S'Qing Hu'
p518
sa(dp519
g2
S'http://media3.picsearch.com/is?rrIbSVJ5m7Kd9i-AxE_U2EWFaEHMd8CEDiXn6hcZhMw'
p520
sg4
S'Peter L. Hagelstein'
p521
sa(dp522
g2
S'http://media3.picsearch.com/is?GDk0OQoLJi5shjrSazb-4ikvzA6z30pLqS0UAqovQ2o'
p523
sg4
S'Jongyoon Han'
p524
sa(dp525
g2
S'http://media5.picsearch.com/is?mDbfw474i4ACOKFOmWEtMZNe4STUy9re-RlSoXwQufw'
p526
sg4
S'Alan P. Jasanoff'
p527
sa(dp528
g2
S'http://media1.picsearch.com/is?PmhHVy0i-dSODdBNv7uKx-umvNp46kJhdRGnPfswaDQ'
p529
sg4
S'Martha Gray'
p530
sa(dp531
g2
S'http://media2.picsearch.com/is?Evj3p0EYmGcgk4pUEpmRpP7woux16vnzTJxBXehmSIY'
p532
sg4
S'David K. Gifford'
p533
sa(dp534
g2
S'http://media3.picsearch.com/is?fRKNl4DdXVxOpFB1dwLsfOcOUhHjt0Rb6KtcECG2l5Y'
p535
sg4
S'Polina Golland'
p536
sa(dp537
g2
S'http://media2.picsearch.com/is?NKvNG_B4alwX3hzWcVoY9KBls3yPXxtIvh9QGDz8C4o'
p538
sg4
S'James G. Fujimoto'
p539
sa(dp540
g2
S'http://media1.picsearch.com/is?xtnN8BJ8Wl35qK_N6izRdpNgVN940QQkoPDfSuWfNaA'
p541
sg4
S'William T. Freeman'
p542
sa(dp543
g2
S'http://media1.picsearch.com/is?zEhu5fLIZ-kws4aupGA6SDehcxw70K_uxPll3ZhXJZ0'
p544
sg4
S'Mildred S. Dresselhaus'
p545
sa(dp546
g2
S'http://media3.picsearch.com/is?EIbMnsHflBHi4sv8x36UG4HRVVbcye51Y7np-HgVipE'
p547
sg4
S'Frederic Durand'
p548
sa(dp549
g2
S'http://media3.picsearch.com/is?2DJEBCVeSUs7aNBts38vxWC10y_GthsPrCPuf_122qQ'
p550
sg4
S'Clifton G. Fonstad'
p551
sa(dp552
g2
S'http://media5.picsearch.com/is?JKPuLoCWeHQQ9_YBvsW3axDInSQXXlK2QHX2cdU7Wr0'
p553
sg4
S'Erik D. Demaine'
p554
sa(dp555
g2
S'http://media1.picsearch.com/is?YUOhZ2iEIf9_JJjFg3u1iY_uWFbH8PHXm2eId1izAuc'
p556
sg4
S'Louis D. Braida'
p557
sa(dp558
g2
S'http://media5.picsearch.com/is?OxyUOdqRz8aVhWo1j76dFPOkMI9HC0PrcN4tbuSe2vw'
p559
sg4
S'Vincent W.S. Chan'
p560
sa(dp561
g2
S'http://media5.picsearch.com/is?XzQNykcmsiwUYZyVYzxh2-q2DopfHVtm1dRQrwXLLSc'
p562
sg4
S'Regina A. Barzilay'
p563
sa(dp564
g2
S'http://media2.picsearch.com/is?MvIRigZ7MPBHFr9r11rgVeUjJM3RgIrS0aEq9OjGTPI'
p565
sg4
S'Karl K. Berggren'
p566
sa(dp567
g2
S'http://media3.picsearch.com/is?tN4AtvW7zJyYg1FkjCJGBq1rPS2eJUcJhxRx1QlQouE'
p568
sg4
S'Robert C. Berwick'
p569
sa(dp570
g2
S'http://media1.picsearch.com/is?0KBkFJtA0-W2QBXdjAwcwhtpqDdzcAQuC2xx3PfFwsE'
p571
sg4
S'Marc A. Baldo'
p572
sa(dp573
g2
S'http://media2.picsearch.com/is?WgJDIjJeb7dsF9TzQ3awpUgt9qhxQ10VHM97YATL8Fk'
p574
sg4
S'Arthur B. Baggeroer'
p575
sa(dp576
g2
S'http://media5.picsearch.com/is?k9Qg267DPNNWdmkg_-2hslnZMfeRzfsmVR_yiDVw5OA'
p577
sg4
S'Dimitri A. Antoniadis'
p578
sa(dp579
g2
S'http://media3.picsearch.com/is?G1cMWIhGBYtK6lePegPQAvvZ1HO__7fnGJCLH58IsLo'
p580
sg4
S'Akintunde I. Akinwande'
p581
sa(dp582
g2
S'http://media1.picsearch.com/is?Yw4B2f02-lA1FIQgsFM00KrSJB8dwA-7BQ2wqkJdL2g'
p583
sg4
S'Gregory W. Wornell'
p584
sa(dp585
g2
S'http://media4.picsearch.com/is?3CqNCsGlMt8WPuCfOne5fhCg7236W700Z_tSNykwWZE'
p586
sg4
S'Patrick H. Winston'
p587
sa(dp588
g2
S'http://media5.picsearch.com/is?ipWFC8Xu7SqUxWC5to2U94Ey83cr-JAmvBeGw4K7j5A'
p589
sg4
S'Alan S. Willsky'
p590
sa(dp591
g2
S'http://media2.picsearch.com/is?whDSBTb2LN50AexJm8ji0JLFZSs5YkgFYMAxw_cpsXk'
p592
sg4
S'Jacob White'
p593
sa(dp594
g2
S'http://media4.picsearch.com/is?gb2xLUDFj8jVzlEegKeGVHcw57W-PqzUFGAmnpafR-w'
p595
sg4
S'Michael R. Watts'
p596
sa(dp597
g2
S'http://media5.picsearch.com/is?W3IQqjgE2Y4qe7Z7x451psyDnE_QRAPMGZCylNtkdP8'
p598
sg4
S'John N. Tsitsiklis'
p599
sa(dp600
g2
S'http://media1.picsearch.com/is?7GcDVDVaQoKcRCs97uzhPzwZMGlaEB8pNbhHJl1fdKo'
p601
sg4
S'Antonio Torralba'
p602
sa(dp603
g2
S'http://media4.picsearch.com/is?RIGCn_z2SeGn8m2fk8rIRfHDfJ_M7_WHJMIHYPapQiQ'
p604
sg4
S'Peter Szolovits'
p605
sa(dp606
g2
S'http://media1.picsearch.com/is?9wqPUGGyzZXlBXev60vKGgzi9nT9UgaKkcgksxtxc-U'
p607
sg4
S'Charles G. Sodini'
p608
sa(dp609
g2
S'http://media4.picsearch.com/is?h2YOHLSYw-a5JHmhJUVZneLYoyUc_7zmyd079ZwT7P8'
p610
sg4
S'Henry I. Smith'
p611
sa(dp612
g2
S'http://media2.picsearch.com/is?YMjzF9KgaxExHe6MDcaJXOP3UyxT9awPi6vb8NsNtFQ'
p613
sg4
S'John. Sterman'
p614
sa(dp615
g2
S'http://media4.picsearch.com/is?9a3-c_AoBW2elDai4qDbw_BWnxNIySE_X_kZLtuLmE4'
p616
sg4
S'Jeffrey Shapiro'
p617
sa(dp618
g2
S'http://media3.picsearch.com/is?Ww8zF4gpZe10KVWuxwY3M_2wd_gM6OQ5sFfBStAFGGk'
p619
sg4
S'Devavrat Shah'
p620
sa(dp621
g2
S'http://media3.picsearch.com/is?HPWWtChbhtlORLUsUCIUQ24H3tTur62AbfcuTPJ_3Zk'
p622
sg4
S'Ronald L. Rivest'
p623
sa(dp624
g2
S'http://media2.picsearch.com/is?e5Okc72QLCwneLqhYl_-xAXQCd_5nHpIHnRejl1z-nE'
p625
sg4
S'Rajeev J. Ram'
p626
sa(dp627
g2
S'http://media4.picsearch.com/is?4DAuMx5mZkJKSOfOBiQy6n4OaNDwiKRNbA8GjYsYYAM'
p628
sg4
S'David J. Perreault'
p629
sa(dp630
g2
S'http://media3.picsearch.com/is?lVhctdGU4GaX1qN8tdNjhkB4Gn7EynRiWvxb8WvvDlo'
p631
sg4
S'Hadar Dana Moshkovitz'
p632
sa(dp633
g2
S'http://media1.picsearch.com/is?VFF0HTg9QkeLpk7k0H5dIBstOGAyiQMms1CUS_1nVHA'
p634
sg4
S'Tomas Palacios'
p635
sa(dp636
g2
S'http://media1.picsearch.com/is?74hNn3NJhLFA3qe_BpXNlxfak9oLwYH9QSwOg1IZiSU'
p637
sg4
S'Marvin L. Minsky'
p638
sa(dp639
g2
S'http://media3.picsearch.com/is?3gax-1COg-si3JVmXTF9kI6i4bFkUODlE8C_07OEWOY'
p640
sg4
S'Sanjoy K. Mitter'
p641
sa(dp642
g2
S'http://media2.picsearch.com/is?a46BUEEcvcOmQfWk9sDLibhucEDobXU39sO4zF-xp3Y'
p643
sg4
S'Albert R. Meyer'
p644
sa(dp645
g2
S'http://media4.picsearch.com/is?9WkMqvVAodglveX5F7Le2NiMBk1ASBEeeWriIjH6jPs'
p646
sg4
S'Alexandre Megretski'
p647
sa(dp648
g2
S'http://media4.picsearch.com/is?tg98NxsbSbi2EJnL72N_s1f7DxwJa_Ci5B6K3QliCeA'
p649
sg4
S'Wojciech Matusik'
p650
sa(dp651
g2
S'http://media4.picsearch.com/is?ro4rs4oKh76xYltWa9bicKaenUCBLizbRMtAMT6Y_3o'
p652
sg4
S'Nancy A. Lynch'
p653
sa(dp654
g2
S'http://media2.picsearch.com/is?DzDMkXuIWUFwVCJwhUcU5_Cz9u_8tKDfgS_taSEnWyw'
p655
sg4
S'Thomas Magnanti'
p656
sa(dp657
g2
S'http://media1.picsearch.com/is?SXvWLk9Zkk3c5H5DzFXmP8T-5dITwS8cvmraz9V4IDA'
p658
sg4
S'Tomas Lozano-Perez'
p659
sa(dp660
g2
S'http://media3.picsearch.com/is?FWltj5Lxq-p92oR4OR5Z0MIidToo1FvrZ_6Ubt0y0i4'
p661
sg4
S'Charles E. Leiserson'
p662
sa(dp663
g2
S'http://media4.picsearch.com/is?uReUyQ2YDpfBsJpllXGhK9vs4XgypNlYhApVaezl1Uw'
p664
sg4
S'Barbara H. Liskov'
p665
sa(dp666
g2
S'http://media4.picsearch.com/is?1DvzBKK6Ns-akcOvZzOKucerIRF-WBKzpf4TuEetEUM'
p667
sg4
S'Manolis Kellis'
p668
sa(dp669
g2
S'http://media4.picsearch.com/is?ae8V1eFh6dInJ14YYqGFtbEHXj1cNzmVbBHth0zRTHo'
p670
sg4
S'David Karger'
p671
sa(dp672
g2
S'http://media3.picsearch.com/is?qtJsovl5euIpMwuLVtaKUcwHqRwnHHrBGc0e5q9BgII'
p673
sg4
S'John G. Kassakian'
p674
sa(dp675
g2
S'http://media3.picsearch.com/is?FZMo6YWaRAdO6Z5c9aiRWmPnIdZOKPhLHK_b_bMcaN8'
p676
sg4
S'John V. Guttag'
p677
sa(dp678
g2
S'http://media2.picsearch.com/is?xc--gLTDDGWJEfVdQSCCmwvV-adAEI3bIa_N2uEhW-4'
p679
sg4
S'Berthold K. P. Horn'
p680
sa(dp681
g2
S'http://media2.picsearch.com/is?ncWxS8HVyKub1UA3mV_kPojeywEaso9IBrHYkpeMZ9E'
p682
sg4
S'Patrick Jaillet'
p683
sa(dp684
g2
S'http://media4.picsearch.com/is?5ev_9NpjcIA9ueKJWnvwkftd0Zbuu3axeJPKI_lkQcE'
p685
sg4
S'M. Frans Kaashoek'
p686
sa(dp687
g2
S'http://media4.picsearch.com/is?jOEv4RbCz7oI7CS0IbZK4vqPejeNYsLHrW6yyYfVkWQ'
p688
sg4
S'W. Eric Grimson'
p689
sa(dp690
g2
S'http://media1.picsearch.com/is?pqJiOWCCMCdSFE04-HkKXjXIIqjCm1GU3fReJqLH58Q'
p691
sg4
S'Shafi Goldwasser'
p692
sa(dp693
g2
S'http://media2.picsearch.com/is?_sfe6Wl66BAaC2WOHwL7bABDoUDeu0_pH3jan2BrzZk'
p694
sg4
S'Dennis M. Freeman'
p695
sa(dp696
g2
S'http://media1.picsearch.com/is?_Ze-hvXkPI2M_aETYooJiem46Wziy31mVt3W4uQlIgM'
p697
sg4
S'Srinivas Devadas'
p698
sa(dp699
g2
S'http://media3.picsearch.com/is?q4VoLVQTPyrNqKqBPHU-i7EIw9fIDN-EgYzQQ9ELoZw'
p700
sg4
S'Randall Davis'
p701
sa(dp702
g2
S'http://media4.picsearch.com/is?MEHo2IfzGo-tPMQ7ttInOe8JgcV3J_lyl1rqjenHzkU'
p703
sg4
S'Jesus A. del Alamo'
p704
sa(dp705
g2
S'http://media1.picsearch.com/is?GQc0VBmTOgtcWsGOHSsaCMtn19qjFVl5ttiy1zT-30M'
p706
sg4
S'Isaac L. Chuang'
p707
sa(dp708
g2
S'http://media3.picsearch.com/is?unKHriYKucCLagOhN2Fc-3_2q2n_T6lvqLRNbc3uFD4'
p709
sg4
S'Anantha P. Chandrakasan'
p710
sa(dp711
g2
S'http://media1.picsearch.com/is?xhcMdTkjuWArX159sSQ9Q_4xXBsTUCcU82-j9K3bBnc'
p712
sg4
S'Rodney A. Brooks'
p713
sa(dp714
g2
S'http://media1.picsearch.com/is?PxTrQIJPM2YKj65L2X-twXo3pMu9T2Xz2I-MTl77awg'
p715
sg4
S'Vladimir Bulovic'
p716
sa(dp717
g2
S'http://media2.picsearch.com/is?Z8Sq-5CdRc1qIiOlmUmGhGrPXZKkf_ahlQ-jqGXUP-M'
p718
sg4
S'Lionel C. Kimerling'
p719
sa(dp720
g2
S'http://media5.picsearch.com/is?uvam-bHDWXPHPT1Xfc723e79bQvlmx1KmNxWgCAirvQ'
p721
sg4
S'Hal Abelson'
p722
sa(dp723
g2
S'http://media4.picsearch.com/is?0Uh_dwFeTqB5wikfeh_349fBlQ_A0FsJt4m4doyWQEQ'
p724
sg4
S'Elfar Adalsteinsson'
p725
sa(dp726
g2
S'http://media1.picsearch.com/is?Jp6IkLXfacIiKiFcc_qkB6DALZNWu5G8Fwjz0yb1bGM'
p727
sg4
S'Timothy Berners-Lee'
p728
sa(dp729
g2
S'http://media1.picsearch.com/is?OokVWAkREM7dTUmSKCsS0OgzpTHirEW7Db7vsT8MPgU'
p730
sg4
S'Jeffrey C. Grossman'
p731
sa(dp732
g2
S'http://media3.picsearch.com/is?j6QKoC2V5xMrqTRHNYa1bpuAB7_4xufJMXVc_molxfM'
p733
sg4
S'Alfredo Alexander-Katz'
p734
sa(dp735
g2
S'http://media3.picsearch.com/is?UQ9mJsePUtb3AKZuf4Jol9KnYI2Zv2LOkfFY6sBTc5I'
p736
sg4
S'Samuel M. Allen'
p737
sa(dp738
g2
S'http://media5.picsearch.com/is?Jxxt0YsD9vg4HTaq7QRos9dFwQ9-l26EHT2FaWDs25M'
p739
sg4
S'Polina Anikeeva'
p740
sa(dp741
g2
S'http://media4.picsearch.com/is?GzNkHEMBIGuhNgckwgQpIZknHPiPUKc8pKlZkJHkIQU'
p742
sg4
S'Alexandra H. Techet'
p743
sa(dp744
g2
S'http://media2.picsearch.com/is?WyNRE-fAIO1D_b-XwvwP8nNd_t8a7OdqLVIXM1C47WM'
p745
sg4
S'John B. Heywood'
p746
sa(dp747
g2
S'http://media1.picsearch.com/is?pQY_C9He152I00PUlwdwQtQ_ScttUxUX7nqLr0UosnY'
p748
sg4
S'John Leonard'
p749
sa(dp750
g2
S'http://media3.picsearch.com/is?u8_Zsv2C68RY-MObKf0SqoWXecav2vwQKMz9C4SHplI'
p751
sg4
S'Borivoje Mikic'
p752
sa(dp753
g2
S'http://media4.picsearch.com/is?JUMT8c9x2m8shFwvLrZQOGefpQdA2koHfl0qTdg5gJ8'
p754
sg4
S'Kamal Youcef-Toumi'
p755
sa(dp756
g2
S'http://media4.picsearch.com/is?R01UmzwbyoNPOFlw8nT16GTSit-yEFySkLeXxUHyY3w'
p757
sg4
S'Dick K.P. Yue'
p758
sa(dp759
g2
S'http://media1.picsearch.com/is?KifqtOnwNi3qmo6mit48a7t8Vm1TMUZYgIgZAjL6xSM'
p760
sg4
S'Jean-Jacques E. Slotine'
p761
sa(dp762
g2
S'http://media4.picsearch.com/is?Pyg6qiKZekE21IiCpBED6q1bPNwX1nEOro55OAbHDMk'
p763
sg4
S'David L. Trumper'
p764
sa(dp765
g2
S'http://media5.picsearch.com/is?6WhSt_APe8_WFn8hX39XKU_pw7L849_Y0ZYBDjfsI-I'
p766
sg4
S'David Wallace'
p767
sa(dp768
g2
S'http://media1.picsearch.com/is?2_gJbs5YXQB8sVQdYt76quTa7VgwYJPrbmNACC8t-mQ'
p769
sg4
S'Evelyn N. Wang'
p770
sa(dp771
g2
S'http://media3.picsearch.com/is?WJj0JJb3WxIWicG5f496wuGoh3Pdojd3u--gD5O6ODM'
p772
sg4
S'Ioannis V. Yannas'
p773
sa(dp774
g2
S'http://media4.picsearch.com/is?fkbV7-JugCEWGWEUi616slQOA4b7DfEstLFAuCpqvBg'
p775
sg4
S'Anthony Patera'
p776
sa(dp777
g2
S'http://media3.picsearch.com/is?tWLARVVDorbJ38jhV2czB3q2lhmBVpt73T8-Y2ig-pQ'
p778
sg4
S'Derek Rowell'
p779
sa(dp780
g2
S'http://media4.picsearch.com/is?Spg1o3tPJGSijYkRaaYqoV0O6IcdFyLNsUWXPI7yc00'
p781
sg4
S'Yang Shao-Horn'
p782
sa(dp783
g2
S'http://media1.picsearch.com/is?bik9NAvpqiceRXXL9s9CkyPNWIo9U1lyN69n4tjJMic'
p784
sg4
S'Matthew J. Lang'
p785
sa(dp786
g2
S'http://media1.picsearch.com/is?2mhyi_DcnNQW8VhyuvZFYo5Uk5SEZ8L2z8LhBw9TJGI'
p787
sg4
S'John H. Lienhard'
p788
sa(dp789
g2
S'http://media4.picsearch.com/is?KttSwE-woD4NOkhjx6fXZNK97ViI7ppvwytPC1yFrDM'
p790
sg4
S'Seth Lloyd'
p791
sa(dp792
g2
S'http://media4.picsearch.com/is?7Q4x5bcisI1kuDk4Af4M3PqBTDD84KqiPVq8WL9z17M'
p793
sg4
S'David E. Hardt'
p794
sa(dp795
g2
S'http://media2.picsearch.com/is?Lj_VbOxMbP7dDe-6aKz9syBMJ0SEHvcS0kHhWxuSiBU'
p796
sg4
S'Douglas P. Hart'
p797
sa(dp798
g2
S'http://media2.picsearch.com/is?_5CQ9bzzWS6o4PnVcboQffT9CBMXBCOG_kVbaR8qvuc'
p799
sg4
S'Neville Hogan'
p800
sa(dp801
g2
S'http://media2.picsearch.com/is?len_s0bzfJNJRDtemiSNvmgT7pP--LcA7WecGNkmqtQ'
p802
sg4
S'Rohit Karnik'
p803
sa(dp804
g2
S'http://media1.picsearch.com/is?ExMMWdRHysSjIgoaFeURCUsyfblSvUxJgH-Py1Ln9EA'
p805
sg4
S'Timothy G. Gutowski'
p806
sa(dp807
g2
S'http://media2.picsearch.com/is?naFSvWMql__R_E--NzLDLOXFVkN_q1lkd6l17Mp1GJc'
p808
sg4
S'Daniel Frey'
p809
sa(dp810
g2
S'http://media4.picsearch.com/is?Z3cCDo-2FNtIciFNdqFqq_GGP725rT5Nx9IYG83nOOI'
p811
sg4
S'Leon R. Glicksman'
p812
sa(dp813
g2
S'http://media2.picsearch.com/is?iLULk04KawxdK6TEg4mLwLCcnhqGsFoiHgEAhwQZFe4'
p814
sg4
S'David Gossard'
p815
sa(dp816
g2
S'http://media4.picsearch.com/is?SsGk0TcuYrCxe-Cti5bieYW2C6LnasyPfMHD5gQ5NWU'
p817
sg4
S'Alan J. Grodzinsky'
p818
sa(dp819
g2
S'http://media2.picsearch.com/is?omfErsvkWHlzhTiOnpsN3pg06G1YG_BcVYeeSnPJIpc'
p820
sg4
S'Ernest G. Cravalho'
p821
sa(dp822
g2
S'http://media2.picsearch.com/is?WrhqC102D6Xo4WhzrFP217UksIgP2v2k4kdTjiguf7w'
p823
sg4
S'John G. Brisson II'
p824
sa(dp825
g2
S'http://media4.picsearch.com/is?EpB-6WLVvj14xFICpNQYZcxh8lc-JjBXrYPwHyln3AQ'
p826
sg4
S'Wai K. Cheng'
p827
sa(dp828
g2
S'http://media4.picsearch.com/is?J1UX3Sy6FVE5CtTRF08FQP89SRtnsBQK7uBRuksaMFk'
p829
sg4
S'Jung-Hoon Chun'
p830
sa(dp831
g2
S'http://media2.picsearch.com/is?2sTXbZaonjyeap02o1yQkGmdgwUxgmE1cyVSQRwF1xo'
p832
sg4
S'Lallit Anand'
p833
sa(dp834
g2
S'http://media2.picsearch.com/is?mCAXHrkFduqATRslEgudMixOIjBV718ClgaPa1lnK2E'
p835
sg4
S'Haruhiko Asada'
p836
sa(dp837
g2
S'http://media1.picsearch.com/is?aWPOy8KoOWC0mKOOMf9OJuRq6P1owjcVI5Y2IpAh7os'
p838
sg4
S'Mary Boyce'
p839
sa(dp840
g2
S'http://media5.picsearch.com/is?QmBclzLiSoJRJtB0R-hgRO9q38C97TP52WsdzksfXyY'
p841
sg4
S'Carl D. Martland'
p842
sa(dp843
g2
S'http://media4.picsearch.com/is?0igWcPG82410UcSFrVkWdBQZPgmNC_xUeM-NRsheO5I'
p844
sg4
S'Rohan Abeyaratne'
p845
sa(dp846
g2
S'http://media5.picsearch.com/is?rlUPTZsCOg4MYqJ_jItFIncaJ44pmtiC_1IdkK6yAsc'
p847
sg4
S'Sheila Frankel'
p848
sa(dp849
g2
S'http://media1.picsearch.com/is?nDzFfpRNJFLmwdT1vsOvYq8n8NN8VC7YbZsafwxNAZE'
p850
sg4
S'John T. Germaine'
p851
sa(dp852
g2
S'http://media5.picsearch.com/is?15Xac_L5bdVlMQhOHhDY4areDLt2RjWewCw246rd2_s'
p853
sg4
S'Edward F. De Long'
p854
sa(dp855
g2
S'http://media3.picsearch.com/is?FWmuKGtmkPPHtMhWdXtwLCh-d_Zu0nydy8jv9FO6i9o'
p856
sg4
S'Jerome J. Connor Jr.'
p857
sa(dp858
g2
S'http://media4.picsearch.com/is?CKMAfFUtoOafj514XTKGCdW6U8k4GN-B8aev9bxDqmE'
p859
sg4
S'Daniele Veneziano'
p860
sa(dp861
g2
S'http://media4.picsearch.com/is?UkmaCMYKUWZNJxytKTl-0vrJKn1aSI2elT65PK7pNVI'
p862
sg4
S'Andrew Whittle'
p863
sa(dp864
g2
S'http://media1.picsearch.com/is?fO_q6IPR1H2HKYhMPgRZTaG4eIM-otTgBIm-v30RQ48'
p865
sg4
S'John R. Williams'
p866
sa(dp867
g2
S'http://media1.picsearch.com/is?To2iIwuMv6VoglEXyp6AzGvo6929sSx28EdefI5rY4E'
p868
sg4
S'Nigel Wilson'
p869
sa(dp870
g2
S'http://media1.picsearch.com/is?pnVxntqiX3YiDwgmwdB1P-in9lkWXj8NoSIXOrksI7c'
p871
sg4
S'Yosef Sheffi'
p872
sa(dp873
g2
S'http://media5.picsearch.com/is?4wF_gS3kUkHEDgO22nExjilc5tGdRlmionN09oMst0g'
p874
sg4
S'Martin Polz'
p875
sa(dp876
g2
S'http://media5.picsearch.com/is?QNOWirGbMkP2kFGwDDgLcfNYtGq1YZeS384O0Af6nQ8'
p877
sg4
S'Daniel Roos'
p878
sa(dp879
g2
S'http://media5.picsearch.com/is?-5PeudIFD--zF5l1ygn-KFwz_rZFHxztPEGIQhdgFyk'
p880
sg4
S'Chiang C. Mei'
p881
sa(dp882
g2
S'http://media4.picsearch.com/is?OrvtHmnp6hHuEJNqrtZw5FQkQn-GBEczzoZ-7PG4s38'
p883
sg4
S'Fred Moavenzadeh'
p884
sa(dp885
g2
S'http://media4.picsearch.com/is?ZqG3q1blvKim0lMF1WckoERR3_VKeDqgHLaSTl6CRFg'
p886
sg4
S'Heidi M. Nepf'
p887
sa(dp888
g2
S'http://media5.picsearch.com/is?tIRw42EzFJIUd4wD_Fye9_LSrkxCXKHAVpyeMucmzjA'
p889
sg4
S'Carolina Osorio'
p890
sa(dp891
g2
S'http://media1.picsearch.com/is?n1VCgFqlTM9bPdk5YZAFoM6IyJTg4PK7eHgqFfRiwRY'
p892
sg4
S'David H. Marks'
p893
sa(dp894
g2
S'http://media3.picsearch.com/is?4aK3HUoIEQmc-jQe9V2GaxVZEqzAM3o8TvhpjgND3_c'
p895
sg4
S'Dennis B. McLaughlin'
p896
sa(dp897
g2
S'http://media5.picsearch.com/is?YA6UhVW4w4ZUiOpt91vBnnsTJDOglqW6Z9zyLBau0YA'
p898
sg4
S'Harold F. Hemond'
p899
sa(dp900
g2
S'http://media1.picsearch.com/is?5SNMMEELlwBVN7FAx1Rb4FErwJDHJE2rGvk85WxJm08'
p901
sg4
S'Steven R. Lerman'
p902
sa(dp903
g2
S'http://media3.picsearch.com/is?NCSLqH6C3We2bmapaigRXiPUaeBTMA2FUwBovwYYSg0'
p904
sg4
S'Ole S. Madsen'
p905
sa(dp906
g2
S'http://media5.picsearch.com/is?6aRerD7GOB_gbugeUTnGQnubj0Cbf0O9hIKXOLdWF-E'
p907
sg4
S'Dara Entekhabi'
p908
sa(dp909
g2
S'http://media1.picsearch.com/is?GcSs-8rf3MO2vioede2gB-Z7JdQwi8zGfZO_0BtQWL8'
p910
sg4
S'Philip Gschwend'
p911
sa(dp912
g2
S'http://media5.picsearch.com/is?kcuunL9DBk5teCNNVHrhMKcmz_C86tWB9fW6XlORZ8U'
p913
sg4
S'Sallie W. Chisholm'
p914
sa(dp915
g2
S'http://media3.picsearch.com/is?yiYQ7K_yR_wGy7RlLQcOLMR5F8pnZg7R2dTT1yKe1DQ'
p916
sg4
S'Richard de Neufville'
p917
sa(dp918
g2
S'http://media4.picsearch.com/is?isOZ3yeNwwe8Mdr5jf6Oe3eaEMM2fUiP2NBOyROjj6s'
p919
sg4
S'Herbert H. Einstein'
p920
sa(dp921
g2
S'http://media4.picsearch.com/is?mtBqvFpu8XxZEYfH_uRAXaTr4BRHjr8KhxYMxxZfEjo'
p922
sg4
S'El Fatih Eltahir'
p923
sa(dp924
g2
S'http://media5.picsearch.com/is?0skihPE3vHG1yGvdQOGJCnfm-LwH1fiKqk4a7Yh7CVk'
p925
sg4
S'Moshe Ben-Akiva'
p926
sa(dp927
g2
S'http://media1.picsearch.com/is?gFES58QZJu2u_6VwOhuN42eqgOAQ7yjwp6xpWYGKgoY'
p928
sg4
S'Rafael L. Bras'
p929
sa(dp930
g2
S'http://media4.picsearch.com/is?RcsTPcpfC6C99pGkABa7q-lWzsJrYPp9xcGHobNFrTo'
p931
sg4
S'Oral Buyukozturk'
p932
sa.